ARM Linker, 4.1 [Build 791] [Professional]

==============================================================================

Section Cross References

    application.o(.text) refers to platform.o(.text) for rt_platform_init
    application.o(.text) refers to components.o(.text) for rt_components_init
    application.o(.text) refers to dfs_fs.o(.text) for dfs_mount
    application.o(.text) refers to kservice.o(.text) for rt_kprintf
    application.o(.text) refers to ethernetif.o(.text) for eth_system_device_init
    application.o(.text) refers to stm32_eth.o(.text) for rt_hw_stm32_eth_init
    application.o(.text) refers to device.o(.text) for rt_device_init_all
    application.o(.text) refers to sys_arch.o(.text) for lwip_sys_init
    application.o(.text) refers to shell.o(.text) for finsh_system_init
    application.o(.text) refers to thread.o(.text) for rt_thread_create
    startup.o(.text) refers to kservice.o(.text) for rt_kprintf
    startup.o(.text) refers to board.o(.text) for rt_hw_board_init
    startup.o(.text) refers to clock.o(.text) for rt_system_tick_init
    startup.o(.text) refers to object.o(.text) for rt_system_object_init
    startup.o(.text) refers to timer.o(.text) for rt_system_timer_init
    startup.o(.text) refers to mem.o(.text) for rt_system_heap_init
    startup.o(.text) refers to scheduler.o(.text) for rt_system_scheduler_init
    startup.o(.text) refers to device.o(.text) for rt_device_init_all
    startup.o(.text) refers to application.o(.text) for rt_application_init
    startup.o(.text) refers to idle.o(.text) for rt_thread_idle_init
    startup.o(.text) refers to context_rvds.o(.text) for rt_hw_interrupt_disable
    board.o(.text) refers to misc.o(.text) for NVIC_SetVectorTable
    board.o(.text) refers to irq.o(.text) for rt_interrupt_enter
    board.o(.text) refers to clock.o(.text) for rt_tick_increase
    board.o(.text) refers to usart.o(.text) for rt_hw_usart_init
    board.o(.text) refers to kservice.o(.text) for rt_console_set_device
    board.o(.text) refers to system_stm32f10x.o(.data) for SystemCoreClock
    msd.o(.text) refers to ipc.o(.text) for rt_mutex_take
    msd.o(.text) refers to clock.o(.text) for rt_tick_get
    msd.o(.text) refers to kservice.o(.text) for rt_memset
    msd.o(.text) refers to spi_core.o(.text) for rt_spi_configure
    msd.o(.text) refers to aeabi_memset.o(.text) for __aeabi_memset
    msd.o(.text) refers to device.o(.text) for rt_device_find
    msd.o(.text) refers to msd.o(.constdata) for .constdata
    msd.o(.text) refers to msd.o(.bss) for .bss
    platform.o(.text) refers to stm32f10x_rcc.o(.text) for RCC_APB2PeriphClockCmd
    platform.o(.text) refers to stm32f10x_gpio.o(.text) for GPIO_Init
    platform.o(.text) refers to rt_stm32f10x_spi.o(.text) for stm32_spi_register
    platform.o(.text) refers to spi_core.o(.text) for rt_spi_bus_attach_device
    platform.o(.text) refers to platform.o(.bss) for .bss
    platform.o(.text) refers to platform.o(.data) for .data
    rt_stm32f10x_spi.o(.text) refers to stm32f10x_spi.o(.text) for SPI_StructInit
    rt_stm32f10x_spi.o(.text) refers to stm32f10x_gpio.o(.text) for GPIO_ResetBits
    rt_stm32f10x_spi.o(.text) refers to stm32f10x_rcc.o(.text) for RCC_APB2PeriphClockCmd
    rt_stm32f10x_spi.o(.text) refers to spi_core.o(.text) for rt_spi_bus_register
    rt_stm32f10x_spi.o(.text) refers to system_stm32f10x.o(.data) for SystemCoreClock
    rt_stm32f10x_spi.o(.text) refers to rt_stm32f10x_spi.o(.data) for .data
    rt_stm32f10x_spi.o(.data) refers to rt_stm32f10x_spi.o(.text) for configure
    serial.o(.text) refers to kservice.o(.text) for rt_memset
    serial.o(.text) refers to mempool.o(.text) for rt_mp_init
    serial.o(.text) refers to stm32f10x_usart.o(.text) for USART_Cmd
    serial.o(.text) refers to context_rvds.o(.text) for rt_hw_interrupt_disable
    serial.o(.text) refers to stm32f10x_dma.o(.text) for DMA_Cmd
    serial.o(.text) refers to device.o(.text) for rt_device_register
    serial.o(.text) refers to serial.o(.constdata) for .constdata
    stm32_eth.o(.text) refers to stm32f10x_rcc.o(.text) for RCC_AHBPeriphResetCmd
    stm32_eth.o(.text) refers to startup.o(.text) for assert_failed
    stm32_eth.o(.text) refers to stm32_eth.o(.data) for .data
    stm32_eth.o(.text) refers to irq.o(.text) for rt_interrupt_enter
    stm32_eth.o(.text) refers to ethernetif.o(.text) for eth_device_ready
    stm32_eth.o(.text) refers to ipc.o(.text) for rt_sem_release
    stm32_eth.o(.text) refers to kservice.o(.text) for rt_set_errno
    stm32_eth.o(.text) refers to def.o(.text) for lwip_htons
    stm32_eth.o(.text) refers to pbuf.o(.text) for pbuf_alloc
    stm32_eth.o(.text) refers to stm32_eth.o(.bss) for .bss
    stm32_eth.o(.text) refers to stm32f10x_gpio.o(.text) for GPIO_PinRemapConfig
    stm32_eth.o(.text) refers to misc.o(.text) for NVIC_Init
    stm32f10x_it.o(.text) refers to irq.o(.text) for rt_interrupt_enter
    stm32f10x_it.o(.text) refers to serial.o(.text) for rt_hw_serial_isr
    stm32f10x_it.o(.text) refers to usart.o(.bss) for uart1_device
    usart.o(.text) refers to stm32f10x_rcc.o(.text) for RCC_APB2PeriphClockCmd
    usart.o(.text) refers to stm32f10x_gpio.o(.text) for GPIO_PinRemapConfig
    usart.o(.text) refers to misc.o(.text) for NVIC_Init
    usart.o(.text) refers to stm32f10x_usart.o(.text) for USART_Init
    usart.o(.text) refers to serial.o(.text) for rt_hw_serial_register
    usart.o(.text) refers to usart.o(.data) for .data
    usart.o(.text) refers to usart.o(.bss) for .bss
    usart.o(.data) refers to usart.o(.bss) for uart1_int_rx
    usart.o(.data) refers to usart.o(.bss) for uart2_int_rx
    system_stm32f10x.o(.text) refers to system_stm32f10x.o(.data) for .data
    stm32f10x_rcc.o(.text) refers to startup.o(.text) for assert_failed
    stm32f10x_rcc.o(.text) refers to stm32f10x_rcc.o(.data) for .data
    stm32f10x_wwdg.o(.text) refers to stm32f10x_rcc.o(.text) for RCC_APB1PeriphResetCmd
    stm32f10x_wwdg.o(.text) refers to startup.o(.text) for assert_failed
    stm32f10x_pwr.o(.text) refers to stm32f10x_rcc.o(.text) for RCC_APB1PeriphResetCmd
    stm32f10x_pwr.o(.text) refers to startup.o(.text) for assert_failed
    stm32f10x_exti.o(.text) refers to startup.o(.text) for assert_failed
    stm32f10x_bkp.o(.text) refers to stm32f10x_rcc.o(.text) for RCC_BackupResetCmd
    stm32f10x_bkp.o(.text) refers to startup.o(.text) for assert_failed
    stm32f10x_i2c.o(.text) refers to startup.o(.text) for assert_failed
    stm32f10x_i2c.o(.text) refers to stm32f10x_rcc.o(.text) for RCC_APB1PeriphResetCmd
    stm32f10x_adc.o(.text) refers to startup.o(.text) for assert_failed
    stm32f10x_adc.o(.text) refers to stm32f10x_rcc.o(.text) for RCC_APB2PeriphResetCmd
    stm32f10x_dac.o(.text) refers to stm32f10x_rcc.o(.text) for RCC_APB1PeriphResetCmd
    stm32f10x_dac.o(.text) refers to startup.o(.text) for assert_failed
    stm32f10x_rtc.o(.text) refers to startup.o(.text) for assert_failed
    stm32f10x_fsmc.o(.text) refers to startup.o(.text) for assert_failed
    stm32f10x_tim.o(.text) refers to startup.o(.text) for assert_failed
    stm32f10x_tim.o(.text) refers to stm32f10x_rcc.o(.text) for RCC_APB1PeriphResetCmd
    stm32f10x_iwdg.o(.text) refers to startup.o(.text) for assert_failed
    stm32f10x_spi.o(.text) refers to startup.o(.text) for assert_failed
    stm32f10x_spi.o(.text) refers to stm32f10x_rcc.o(.text) for RCC_APB2PeriphResetCmd
    stm32f10x_flash.o(.text) refers to startup.o(.text) for assert_failed
    stm32f10x_sdio.o(.text) refers to startup.o(.text) for assert_failed
    stm32f10x_gpio.o(.text) refers to startup.o(.text) for assert_failed
    stm32f10x_gpio.o(.text) refers to stm32f10x_rcc.o(.text) for RCC_APB2PeriphResetCmd
    stm32f10x_usart.o(.text) refers to startup.o(.text) for assert_failed
    stm32f10x_usart.o(.text) refers to stm32f10x_rcc.o(.text) for RCC_APB2PeriphResetCmd
    stm32f10x_dbgmcu.o(.text) refers to startup.o(.text) for assert_failed
    stm32f10x_dma.o(.text) refers to startup.o(.text) for assert_failed
    stm32f10x_can.o(.text) refers to startup.o(.text) for assert_failed
    stm32f10x_can.o(.text) refers to stm32f10x_rcc.o(.text) for RCC_APB1PeriphResetCmd
    stm32f10x_cec.o(.text) refers to stm32f10x_rcc.o(.text) for RCC_APB1PeriphResetCmd
    stm32f10x_cec.o(.text) refers to startup.o(.text) for assert_failed
    misc.o(.text) refers to startup.o(.text) for assert_failed
    startup_stm32f10x_cl.o(STACK) refers (Special) to heapauxi.o(.text) for __use_two_region_memory
    startup_stm32f10x_cl.o(HEAP) refers (Special) to heapauxi.o(.text) for __use_two_region_memory
    startup_stm32f10x_cl.o(RESET) refers (Special) to heapauxi.o(.text) for __use_two_region_memory
    startup_stm32f10x_cl.o(RESET) refers to startup_stm32f10x_cl.o(STACK) for __initial_sp
    startup_stm32f10x_cl.o(RESET) refers to startup_stm32f10x_cl.o(.text) for Reset_Handler
    startup_stm32f10x_cl.o(RESET) refers to stm32f10x_it.o(.text) for NMI_Handler
    startup_stm32f10x_cl.o(RESET) refers to context_rvds.o(.text) for HardFault_Handler
    startup_stm32f10x_cl.o(RESET) refers to board.o(.text) for SysTick_Handler
    startup_stm32f10x_cl.o(RESET) refers to stm32_eth.o(.text) for ETH_IRQHandler
    startup_stm32f10x_cl.o(.text) refers (Special) to heapauxi.o(.text) for __use_two_region_memory
    startup_stm32f10x_cl.o(.text) refers to system_stm32f10x.o(.text) for SystemInit
    startup_stm32f10x_cl.o(.text) refers to __main.o(!!!main) for __main
    startup_stm32f10x_cl.o(.text) refers to startup_stm32f10x_cl.o(HEAP) for Heap_Mem
    startup_stm32f10x_cl.o(.text) refers to startup_stm32f10x_cl.o(STACK) for Stack_Mem
    clock.o(.text) refers to context_rvds.o(.text) for rt_hw_interrupt_disable
    clock.o(.text) refers to thread.o(.text) for rt_thread_self
    clock.o(.text) refers to timer.o(.text) for rt_timer_check
    clock.o(.text) refers to clock.o(.data) for .data
    device.o(.text) refers to thread.o(.text) for rt_thread_self
    device.o(.text) refers to scheduler.o(.text) for rt_enter_critical
    device.o(.text) refers to kservice.o(.text) for rt_strncmp
    device.o(.text) refers to object.o(.text) for rt_object_init
    device.o(.text) refers to object.o(.data) for rt_object_container
    device.o(.text) refers to device.o(.constdata) for .constdata
    idle.o(.text) refers to context_rvds.o(.text) for rt_hw_interrupt_disable
    idle.o(.text) refers to irq.o(.text) for rt_interrupt_get_nest
    idle.o(.text) refers to kservice.o(.text) for rt_kprintf
    idle.o(.text) refers to object.o(.text) for rt_object_is_systemobject
    idle.o(.text) refers to mem.o(.text) for rt_free
    idle.o(.text) refers to thread.o(.text) for rt_thread_init
    idle.o(.text) refers to idle.o(.data) for .data
    idle.o(.text) refers to scheduler.o(.data) for rt_thread_defunct
    idle.o(.text) refers to idle.o(.constdata) for .constdata
    idle.o(.text) refers to idle.o(.bss) for .bss
    ipc.o(.text) refers to thread.o(.text) for rt_thread_suspend
    ipc.o(.text) refers to context_rvds.o(.text) for rt_hw_interrupt_disable
    ipc.o(.text) refers to kservice.o(.text) for rt_kprintf
    ipc.o(.text) refers to object.o(.text) for rt_object_init
    ipc.o(.text) refers to irq.o(.text) for rt_interrupt_get_nest
    ipc.o(.text) refers to timer.o(.text) for rt_timer_control
    ipc.o(.text) refers to scheduler.o(.text) for rt_schedule
    ipc.o(.text) refers to ipc.o(.constdata) for .constdata
    ipc.o(.text) refers to object.o(.data) for rt_object_trytake_hook
    ipc.o(.text) refers to mem.o(.text) for rt_malloc
    ipc.o(.text) refers to clock.o(.text) for rt_tick_get
    irq.o(.text) refers to context_rvds.o(.text) for rt_hw_interrupt_disable
    irq.o(.text) refers to irq.o(.data) for .data
    kservice.o(.text) refers to irq.o(.text) for rt_interrupt_get_nest
    kservice.o(.text) refers to thread.o(.text) for rt_thread_self
    kservice.o(.text) refers to mem.o(.text) for rt_malloc
    kservice.o(.text) refers to kservice.o(.data) for .data
    kservice.o(.text) refers to kservice.o(.constdata) for .constdata
    kservice.o(.text) refers to device.o(.text) for rt_device_write
    kservice.o(.text) refers to kservice.o(.bss) for .bss
    mem.o(.text) refers to kservice.o(.text) for rt_kprintf
    mem.o(.text) refers to context_rvds.o(.text) for rt_hw_interrupt_disable
    mem.o(.text) refers to irq.o(.text) for rt_interrupt_get_nest
    mem.o(.text) refers to ipc.o(.text) for rt_sem_init
    mem.o(.text) refers to mem.o(.data) for .data
    mem.o(.text) refers to mem.o(.constdata) for .constdata
    mem.o(.text) refers to mem.o(.bss) for .bss
    mem.o(FSymTab) refers to mem.o(.constdata) for __fsym_list_mem_name
    mem.o(FSymTab) refers to mem.o(.constdata) for __fsym_list_mem_desc
    mem.o(FSymTab) refers to mem.o(.text) for list_mem
    mempool.o(.text) refers to kservice.o(.text) for rt_kprintf
    mempool.o(.text) refers to object.o(.text) for rt_object_init
    mempool.o(.text) refers to context_rvds.o(.text) for rt_hw_interrupt_disable
    mempool.o(.text) refers to thread.o(.text) for rt_thread_resume
    mempool.o(.text) refers to irq.o(.text) for rt_interrupt_get_nest
    mempool.o(.text) refers to mem.o(.text) for rt_malloc
    mempool.o(.text) refers to timer.o(.text) for rt_timer_control
    mempool.o(.text) refers to scheduler.o(.text) for rt_schedule
    mempool.o(.text) refers to mempool.o(.data) for .data
    mempool.o(.text) refers to mempool.o(.constdata) for .constdata
    object.o(.text) refers to kservice.o(.text) for rt_strncpy
    object.o(.text) refers to context_rvds.o(.text) for rt_hw_interrupt_disable
    object.o(.text) refers to irq.o(.text) for rt_interrupt_get_nest
    object.o(.text) refers to mem.o(.text) for rt_malloc
    object.o(.text) refers to scheduler.o(.text) for rt_enter_critical
    object.o(.text) refers to object.o(.data) for .data
    object.o(.text) refers to object.o(.constdata) for .constdata
    object.o(.text) refers to irq.o(.data) for rt_interrupt_nest
    scheduler.o(.text) refers to kservice.o(.text) for __rt_ffs
    scheduler.o(.text) refers to context_rvds.o(.text) for rt_hw_context_switch_to
    scheduler.o(.text) refers to cmd.o(.text) for list_thread
    scheduler.o(.text) refers to scheduler.o(.data) for .data
    scheduler.o(.text) refers to scheduler.o(.bss) for .bss
    scheduler.o(.text) refers to irq.o(.data) for rt_interrupt_nest
    scheduler.o(.text) refers to scheduler.o(.constdata) for .constdata
    thread.o(.text) refers to context_rvds.o(.text) for rt_hw_interrupt_disable
    thread.o(.text) refers to scheduler.o(.text) for rt_schedule_remove_thread
    thread.o(.text) refers to object.o(.text) for rt_object_detach
    thread.o(.text) refers to kservice.o(.text) for rt_kprintf
    thread.o(.text) refers to cpuport.o(.text) for rt_hw_stack_init
    thread.o(.text) refers to timer.o(.text) for rt_timer_init
    thread.o(.text) refers to mem.o(.text) for rt_malloc
    thread.o(.text) refers to scheduler.o(.data) for rt_current_thread
    thread.o(.text) refers to thread.o(.constdata) for .constdata
    thread.o(.text) refers to scheduler.o(.bss) for rt_thread_priority_table
    thread.o(.text) refers to object.o(.data) for rt_object_container
    timer.o(.text) refers to kservice.o(.text) for rt_kprintf
    timer.o(.text) refers to object.o(.text) for rt_object_init
    timer.o(.text) refers to context_rvds.o(.text) for rt_hw_interrupt_disable
    timer.o(.text) refers to clock.o(.text) for rt_tick_get
    timer.o(.text) refers to timer.o(.data) for .data
    timer.o(.text) refers to timer.o(.constdata) for .constdata
    timer.o(.text) refers to object.o(.data) for rt_object_take_hook
    cpuport.o(.text) refers to kservice.o(.text) for rt_kprintf
    cpuport.o(.text) refers to thread.o(.text) for rt_thread_self
    cpuport.o(.text) refers to cmd.o(.text) for list_thread
    cpuport.o(.text) refers to cpuport.o(.data) for .data
    cpuport.o(.text) refers to cpuport.o(.constdata) for .constdata
    context_rvds.o(.text) refers to cpuport.o(.text) for rt_hw_hard_fault_exception
    context_rvds.o(.text) refers to cpuport.o(.data) for rt_thread_switch_interrupt_flag
    context_rvds.o(.text) refers to cpuport.o(.data) for rt_interrupt_from_thread
    context_rvds.o(.text) refers to cpuport.o(.data) for rt_interrupt_to_thread
    showmem.o(.text) refers to kservice.o(.text) for rt_kprintf
    showmem.o(.text) refers to showmem.o(.constdata) for .constdata
    dfs.o(.text) refers to kservice.o(.text) for rt_memset
    dfs.o(.text) refers to ipc.o(.text) for rt_mutex_init
    dfs.o(.text) refers to strlen.o(.text) for strlen
    dfs.o(.text) refers to mem.o(.text) for rt_malloc
    dfs.o(.text) refers to dfs_fs.o(.text) for dfs_filesystem_lookup
    dfs.o(.text) refers to shell.o(.text) for strcmp
    dfs.o(.text) refers to dfs.o(.bss) for .bss
    dfs.o(.text) refers to dfs.o(.data) for .data
    dfs.o(.text) refers to dfs.o(.constdata) for .constdata
    dfs.o(.rti_fn.3) refers to dfs.o(.text) for dfs_init
    dfs_fs.o(.text) refers to dfs.o(.text) for dfs_lock
    dfs_fs.o(.text) refers to shell.o(.text) for strcmp
    dfs_fs.o(.text) refers to strlen.o(.text) for strlen
    dfs_fs.o(.text) refers to strncmp.o(.text) for strncmp
    dfs_fs.o(.text) refers to kservice.o(.text) for rt_kprintf
    dfs_fs.o(.text) refers to device.o(.text) for rt_device_find
    dfs_fs.o(.text) refers to dfs_file.o(.text) for dfs_file_open
    dfs_fs.o(.text) refers to mem.o(.text) for rt_free
    dfs_fs.o(.text) refers to dfs.o(.bss) for filesystem_operation_table
    dfs_fs.o(.text) refers to dfs_fs.o(.constdata) for .constdata
    dfs_fs.o(FSymTab) refers to dfs_fs.o(.constdata) for __fsym_mkfs_name
    dfs_fs.o(FSymTab) refers to dfs_fs.o(.constdata) for __fsym_mkfs_desc
    dfs_fs.o(FSymTab) refers to dfs_fs.o(.text) for mkfs
    dfs_fs.o(FSymTab) refers to dfs_fs.o(.constdata) for __fsym_df_name
    dfs_fs.o(FSymTab) refers to dfs_fs.o(.constdata) for __fsym_df_desc
    dfs_fs.o(FSymTab) refers to dfs_fs.o(.text) for df
    dfs_file.o(.text) refers to dfs.o(.text) for dfs_normalize_path
    dfs_file.o(.text) refers to dfs_fs.o(.text) for dfs_filesystem_lookup
    dfs_file.o(.text) refers to mem.o(.text) for rt_free
    dfs_file.o(.text) refers to kservice.o(.text) for rt_memset
    dfs_file.o(.text) refers to dfs_file.o(.bss) for .bss
    dfs_file.o(.text) refers to dfs.o(.data) for working_directory
    dfs_file.o(FSymTab) refers to dfs_file.o(.constdata) for __fsym_ls_name
    dfs_file.o(FSymTab) refers to dfs_file.o(.constdata) for __fsym_ls_desc
    dfs_file.o(FSymTab) refers to dfs_file.o(.text) for ls
    dfs_file.o(FSymTab) refers to dfs_file.o(.constdata) for __fsym_rm_name
    dfs_file.o(FSymTab) refers to dfs_file.o(.constdata) for __fsym_rm_desc
    dfs_file.o(FSymTab) refers to dfs_file.o(.text) for rm
    dfs_file.o(FSymTab) refers to dfs_file.o(.constdata) for __fsym_cat_name
    dfs_file.o(FSymTab) refers to dfs_file.o(.constdata) for __fsym_cat_desc
    dfs_file.o(FSymTab) refers to dfs_file.o(.text) for cat
    dfs_file.o(FSymTab) refers to dfs_file.o(.constdata) for __fsym_copy_name
    dfs_file.o(FSymTab) refers to dfs_file.o(.constdata) for __fsym_copy_desc
    dfs_file.o(FSymTab) refers to dfs_file.o(.text) for copy
    dfs_posix.o(.text) refers to dfs.o(.text) for fd_new
    dfs_posix.o(.text) refers to dfs_file.o(.text) for dfs_file_open
    dfs_posix.o(.text) refers to kservice.o(.text) for rt_set_errno
    dfs_posix.o(.text) refers to dfs_fs.o(.text) for dfs_statfs
    dfs_posix.o(.text) refers to mem.o(.text) for rt_malloc
    dfs_posix.o(.text) refers to strncpy.o(.text) for strncpy
    dfs_posix.o(.text) refers to scheduler.o(.text) for rt_enter_critical
    dfs_posix.o(.text) refers to dfs.o(.data) for working_directory
    dfs_posix.o(FSymTab) refers to dfs_posix.o(.constdata) for __fsym_mkdir_name
    dfs_posix.o(FSymTab) refers to dfs_posix.o(.constdata) for __fsym_mkdir_desc
    dfs_posix.o(FSymTab) refers to dfs_posix.o(.text) for mkdir
    dfs_posix.o(FSymTab) refers to dfs_posix.o(.constdata) for __fsym_chdir_name
    dfs_posix.o(FSymTab) refers to dfs_posix.o(.constdata) for __fsym_chdir_desc
    dfs_posix.o(FSymTab) refers to dfs_posix.o(.text) for chdir
    dfs_elm.o(.text) refers to mem.o(.text) for rt_malloc
    dfs_elm.o(.text) refers to ff.o(.text) for f_mount
    dfs_elm.o(.text) refers to kservice.o(.text) for rt_snprintf
    dfs_elm.o(.text) refers to dfs_elm.o(.data) for .data
    dfs_elm.o(.text) refers to dfs_elm.o(.constdata) for .constdata
    dfs_elm.o(.text) refers to rt_memclr_w.o(.text) for __aeabi_memclr4
    dfs_elm.o(.text) refers to mktime.o(.text) for mktime
    dfs_elm.o(.text) refers to dfs_fs.o(.text) for dfs_register
    dfs_elm.o(.text) refers to device.o(.text) for rt_device_read
    dfs_elm.o(.text) refers to ipc.o(.text) for rt_mutex_create
    dfs_elm.o(.constdata) refers to dfs_elm.o(.conststring) for .conststring
    dfs_elm.o(.constdata) refers to dfs_elm.o(.text) for dfs_elm_mount
    dfs_elm.o(.rti_fn.4) refers to dfs_elm.o(.text) for elm_init
    ff.o(.text) refers to dfs_elm.o(.text) for disk_write
    ff.o(.text) refers to ff.o(.data) for .data
    ff.o(.text) refers to ff.o(.constdata) for .constdata
    spi_core.o(.text) refers to spi_dev.o(.text) for rt_spi_bus_device_init
    spi_core.o(.text) refers to ipc.o(.text) for rt_mutex_init
    spi_core.o(.text) refers to device.o(.text) for rt_device_find
    spi_core.o(.text) refers to kservice.o(.text) for rt_memset
    spi_core.o(.text) refers to spi_core.o(.constdata) for .constdata
    spi_dev.o(.text) refers to kservice.o(.text) for rt_kprintf
    spi_dev.o(.text) refers to spi_core.o(.text) for rt_spi_transfer
    spi_dev.o(.text) refers to device.o(.text) for rt_device_register
    spi_dev.o(.text) refers to spi_dev.o(.constdata) for .constdata
    cmd.o(.text) refers to kservice.o(.text) for rt_kprintf
    cmd.o(.text) refers to strncmp.o(.text) for strncmp
    cmd.o(.text) refers to strlen.o(.text) for strlen
    cmd.o(.text) refers to cmd.o(.constdata) for .constdata
    cmd.o(.text) refers to object.o(.data) for rt_object_container
    cmd.o(.text) refers to symbol.o(.data) for _syscall_table_begin
    cmd.o(.text) refers to symbol.o(.data) for _syscall_table_end
    cmd.o(.text) refers to finsh_vm.o(.data) for global_syscall_list
    cmd.o(.text) refers to symbol.o(.data) for _sysvar_table_begin
    cmd.o(.text) refers to symbol.o(.data) for _sysvar_table_end
    cmd.o(.text) refers to finsh_var.o(.data) for global_sysvar_list
    cmd.o(.text) refers to clock.o(.text) for rt_tick_get
    cmd.o(.text) refers to rt_memcpy_w.o(.text) for __aeabi_memcpy4
    cmd.o(.constdata) refers to cmd.o(.conststring) for .conststring
    cmd.o(FSymTab) refers to cmd.o(.constdata) for __fsym_hello_name
    cmd.o(FSymTab) refers to cmd.o(.constdata) for __fsym_hello_desc
    cmd.o(FSymTab) refers to cmd.o(.text) for hello
    cmd.o(FSymTab) refers to cmd.o(.constdata) for __fsym_version_name
    cmd.o(FSymTab) refers to cmd.o(.constdata) for __fsym_version_desc
    cmd.o(FSymTab) refers to cmd.o(.text) for version
    cmd.o(FSymTab) refers to cmd.o(.constdata) for __fsym_list_thread_name
    cmd.o(FSymTab) refers to cmd.o(.constdata) for __fsym_list_thread_desc
    cmd.o(FSymTab) refers to cmd.o(.text) for list_thread
    cmd.o(FSymTab) refers to cmd.o(.constdata) for __fsym_list_sem_name
    cmd.o(FSymTab) refers to cmd.o(.constdata) for __fsym_list_sem_desc
    cmd.o(FSymTab) refers to cmd.o(.text) for list_sem
    cmd.o(FSymTab) refers to cmd.o(.constdata) for __fsym_list_event_name
    cmd.o(FSymTab) refers to cmd.o(.constdata) for __fsym_list_event_desc
    cmd.o(FSymTab) refers to cmd.o(.text) for list_event
    cmd.o(FSymTab) refers to cmd.o(.constdata) for __fsym_list_mutex_name
    cmd.o(FSymTab) refers to cmd.o(.constdata) for __fsym_list_mutex_desc
    cmd.o(FSymTab) refers to cmd.o(.text) for list_mutex
    cmd.o(FSymTab) refers to cmd.o(.constdata) for __fsym_list_mailbox_name
    cmd.o(FSymTab) refers to cmd.o(.constdata) for __fsym_list_mailbox_desc
    cmd.o(FSymTab) refers to cmd.o(.text) for list_mailbox
    cmd.o(FSymTab) refers to cmd.o(.constdata) for __fsym_list_msgqueue_name
    cmd.o(FSymTab) refers to cmd.o(.constdata) for __fsym_list_msgqueue_desc
    cmd.o(FSymTab) refers to cmd.o(.text) for list_msgqueue
    cmd.o(FSymTab) refers to cmd.o(.constdata) for __fsym_list_mempool_name
    cmd.o(FSymTab) refers to cmd.o(.constdata) for __fsym_list_mempool_desc
    cmd.o(FSymTab) refers to cmd.o(.text) for list_mempool
    cmd.o(FSymTab) refers to cmd.o(.constdata) for __fsym_list_timer_name
    cmd.o(FSymTab) refers to cmd.o(.constdata) for __fsym_list_timer_desc
    cmd.o(FSymTab) refers to cmd.o(.text) for list_timer
    cmd.o(FSymTab) refers to cmd.o(.constdata) for __fsym_list_device_name
    cmd.o(FSymTab) refers to cmd.o(.constdata) for __fsym_list_device_desc
    cmd.o(FSymTab) refers to cmd.o(.text) for list_device
    cmd.o(FSymTab) refers to cmd.o(.constdata) for __fsym_list_name
    cmd.o(FSymTab) refers to cmd.o(.constdata) for __fsym_list_desc
    cmd.o(FSymTab) refers to cmd.o(.text) for list
    cmd.o(VSymTab) refers to cmd.o(.constdata) for __vsym_dummy_name
    cmd.o(VSymTab) refers to cmd.o(.constdata) for __vsym_dummy_desc
    cmd.o(VSymTab) refers to cmd.o(.data) for dummy
    finsh_compiler.o(.text) refers to finsh_error.o(.text) for finsh_error_set
    finsh_compiler.o(.text) refers to finsh_compiler.o(.data) for .data
    finsh_compiler.o(.text) refers to rt_memclr.o(.text) for __aeabi_memclr
    finsh_compiler.o(.text) refers to finsh_vm.o(.bss) for text_segment
    finsh_error.o(.text) refers to finsh_error.o(.data) for .data
    finsh_error.o(.data) refers to finsh_error.o(.conststring) for .conststring
    finsh_heap.o(.text) refers to rt_memclr_w.o(.text) for __aeabi_memclr4
    finsh_heap.o(.text) refers to finsh_heap.o(.bss) for .bss
    finsh_heap.o(.text) refers to finsh_heap.o(.data) for .data
    finsh_heap.o(.text) refers to finsh_var.o(.bss) for global_variable
    finsh_init.o(.text) refers to finsh_parser.o(.text) for finsh_parser_init
    finsh_init.o(.text) refers to finsh_node.o(.text) for finsh_node_init
    finsh_init.o(.text) refers to finsh_var.o(.text) for finsh_var_init
    finsh_init.o(.text) refers to finsh_error.o(.text) for finsh_error_init
    finsh_init.o(.text) refers to finsh_heap.o(.text) for finsh_heap_init
    finsh_init.o(.text) refers to finsh_vm.o(.bss) for finsh_vm_stack
    finsh_node.o(.text) refers to rt_memclr_w.o(.text) for __aeabi_memclr4
    finsh_node.o(.text) refers to finsh_var.o(.text) for finsh_var_lookup
    finsh_node.o(.text) refers to finsh_vm.o(.text) for finsh_syscall_lookup
    finsh_node.o(.text) refers to finsh_error.o(.text) for finsh_error_set
    finsh_node.o(.text) refers to strlen.o(.text) for strlen
    finsh_node.o(.text) refers to finsh_heap.o(.text) for finsh_heap_allocate
    finsh_node.o(.text) refers to strncpy.o(.text) for strncpy
    finsh_node.o(.text) refers to finsh_node.o(.bss) for .bss
    finsh_ops.o(.text) refers to finsh_vm.o(.data) for finsh_sp
    finsh_ops.o(.constdata) refers to finsh_ops.o(.text) for OP_no_op
    finsh_parser.o(.text) refers to finsh_token.o(.text) for finsh_token_token
    finsh_parser.o(.text) refers to finsh_node.o(.text) for finsh_node_new_long
    finsh_parser.o(.text) refers to finsh_error.o(.text) for finsh_error_set
    finsh_parser.o(.text) refers to finsh_var.o(.text) for finsh_var_insert
    finsh_parser.o(.text) refers to rt_memclr_w.o(.text) for __aeabi_memclr4
    finsh_parser.o(.text) refers to strncpy.o(.text) for strncpy
    finsh_token.o(.text) refers to rt_memclr_w.o(.text) for __aeabi_memclr4
    finsh_token.o(.text) refers to strlen.o(.text) for strlen
    finsh_token.o(.text) refers to shell.o(.text) for strcmp
    finsh_token.o(.text) refers to finsh_error.o(.text) for finsh_error_set
    finsh_token.o(.text) refers to strncpy.o(.text) for strncpy
    finsh_token.o(.text) refers to atoi.o(.text) for atoi
    finsh_token.o(.text) refers to finsh_token.o(.constdata) for .constdata
    finsh_token.o(.constdata) refers to finsh_token.o(.conststring) for .conststring
    finsh_var.o(.text) refers to rt_memclr_w.o(.text) for __aeabi_memclr4
    finsh_var.o(.text) refers to strncmp.o(.text) for strncmp
    finsh_var.o(.text) refers to strncpy.o(.text) for strncpy
    finsh_var.o(.text) refers to mem.o(.text) for rt_malloc
    finsh_var.o(.text) refers to shell.o(.text) for strdup
    finsh_var.o(.text) refers to strlen.o(.text) for strlen
    finsh_var.o(.text) refers to finsh_var.o(.bss) for .bss
    finsh_var.o(.text) refers to finsh_var.o(.data) for .data
    finsh_var.o(.text) refers to symbol.o(.data) for _sysvar_table_begin
    finsh_var.o(.text) refers to symbol.o(.data) for _sysvar_table_end
    finsh_vm.o(.text) refers to mem.o(.text) for rt_malloc
    finsh_vm.o(.text) refers to shell.o(.text) for strdup
    finsh_vm.o(.text) refers to strlen.o(.text) for strlen
    finsh_vm.o(.text) refers to strncmp.o(.text) for strncmp
    finsh_vm.o(.text) refers to finsh_vm.o(.bss) for .bss
    finsh_vm.o(.text) refers to finsh_vm.o(.data) for .data
    finsh_vm.o(.text) refers to finsh_ops.o(.constdata) for op_table
    finsh_vm.o(.text) refers to symbol.o(.data) for _syscall_table_begin
    finsh_vm.o(.text) refers to symbol.o(.data) for _syscall_table_end
    shell.o(.text) refers to strlen.o(.text) for strlen
    shell.o(.text) refers to mem.o(.text) for rt_malloc
    shell.o(.text) refers to kservice.o(.text) for rt_memcpy
    shell.o(.text) refers to dfs_posix.o(.text) for getcwd
    shell.o(.text) refers to strcat.o(.text) for strcat
    shell.o(.text) refers to ipc.o(.text) for rt_sem_release
    shell.o(.text) refers to device.o(.text) for rt_device_find
    shell.o(.text) refers to cmd.o(.text) for list_prefix
    shell.o(.text) refers to finsh_parser.o(.text) for finsh_parser_run
    shell.o(.text) refers to finsh_error.o(.text) for finsh_errno
    shell.o(.text) refers to finsh_compiler.o(.text) for finsh_compiler_run
    shell.o(.text) refers to finsh_vm.o(.text) for finsh_vm_run
    shell.o(.text) refers to finsh_init.o(.text) for finsh_stack_bottom
    shell.o(.text) refers to rt_memcpy_v6.o(.text) for __aeabi_memcpy
    shell.o(.text) refers to rt_memclr.o(.text) for __aeabi_memclr
    shell.o(.text) refers to shell.o(.data) for .data
    shell.o(.text) refers to shell.o(.constdata) for .constdata
    shell.o(.text) refers to rt_memclr_w.o(.text) for __aeabi_memclr4
    shell.o(.text) refers to thread.o(.text) for rt_thread_init
    shell.o(.text) refers to symbol.o(.data) for _syscall_table_begin
    shell.o(.text) refers to symbol.o(.data) for _syscall_table_end
    shell.o(.text) refers to symbol.o(.data) for _sysvar_table_begin
    shell.o(.text) refers to symbol.o(.data) for _sysvar_table_end
    shell.o(.text) refers to shell.o(.bss) for .bss
    shell.o(.rti_fn.3) refers to shell.o(.text) for finsh_system_init
    components.o(.text) refers to components.o(.rti_fn.0) for .rti_fn.0
    components.o(.text) refers to components.o(.rti_fn.1.post) for .rti_fn.1.post
    components.o(.text) refers to components.o(.rti_fn.7) for .rti_fn.7
    components.o(.rti_fn.0) refers to components.o(.text) for rti_start
    components.o(.rti_fn.1.post) refers to components.o(.text) for rti_board_end
    components.o(.rti_fn.7) refers to components.o(.text) for rti_end
    clock_time.o(.text) refers to device.o(.text) for rt_device_find
    clock_time.o(.text) refers to clock.o(.text) for rt_tick_get
    clock_time.o(.text) refers to kservice.o(.text) for rt_set_errno
    clock_time.o(.text) refers to clock_time.o(.data) for .data
    clock_time.o(.text) refers to clock_time.o(.constdata) for .constdata
    mqueue.o(.text) refers to ipc.o(.text) for rt_sem_init
    mqueue.o(.text) refers to mem.o(.text) for rt_free
    mqueue.o(.text) refers to kservice.o(.text) for rt_set_errno
    mqueue.o(.text) refers to clock_time.o(.text) for clock_time_to_tick
    mqueue.o(.text) refers to strncmp.o(.text) for strncmp
    mqueue.o(.text) refers to mqueue.o(.bss) for .bss
    mqueue.o(.text) refers to mqueue.o(.data) for .data
    pthread.o(.text) refers to kservice.o(.text) for rt_kprintf
    pthread.o(.text) refers to clock_time.o(.text) for clock_time_system_init
    pthread.o(.text) refers to pthread_tls.o(.text) for pthread_key_system_init
    pthread.o(.text) refers to mqueue.o(.text) for posix_mq_system_init
    pthread.o(.text) refers to semaphore.o(.text) for posix_sem_system_init
    pthread.o(.text) refers to scheduler.o(.text) for rt_enter_critical
    pthread.o(.text) refers to ipc.o(.text) for rt_sem_delete
    pthread.o(.text) refers to thread.o(.text) for rt_thread_detach
    pthread.o(.text) refers to mem.o(.text) for rt_free
    pthread.o(.text) refers to pthread_attr.o(.text) for pthread_attr_init
    pthread.o(.text) refers to pthread.o(.constdata) for .constdata
    pthread.o(.text) refers to pthread.o(.data) for .data
    pthread.o(.text) refers to pthread_tls.o(.bss) for _thread_keys
    pthread_attr.o(.text) refers to kservice.o(.text) for rt_kprintf
    pthread_attr.o(.text) refers to pthread_attr.o(.constdata) for .constdata
    pthread_barrier.o(.text) refers to pthread_cond.o(.text) for pthread_cond_destroy
    pthread_barrier.o(.text) refers to pthread_mutex.o(.text) for pthread_mutex_init
    pthread_cond.o(.text) refers to kservice.o(.text) for rt_snprintf
    pthread_cond.o(.text) refers to ipc.o(.text) for rt_sem_init
    pthread_cond.o(.text) refers to object.o(.text) for rt_object_detach
    pthread_cond.o(.text) refers to scheduler.o(.text) for rt_enter_critical
    pthread_cond.o(.text) refers to thread.o(.text) for rt_thread_self
    pthread_cond.o(.text) refers to pthread_mutex.o(.text) for pthread_mutex_unlock
    pthread_cond.o(.text) refers to clock_time.o(.text) for clock_time_to_tick
    pthread_cond.o(.text) refers to pthread_cond.o(.data) for .data
    pthread_mutex.o(.text) refers to kservice.o(.text) for rt_snprintf
    pthread_mutex.o(.text) refers to ipc.o(.text) for rt_mutex_init
    pthread_mutex.o(.text) refers to object.o(.text) for rt_object_detach
    pthread_mutex.o(.text) refers to scheduler.o(.text) for rt_enter_critical
    pthread_mutex.o(.text) refers to thread.o(.text) for rt_thread_self
    pthread_mutex.o(.text) refers to pthread_mutex.o(.data) for .data
    pthread_rwlock.o(.text) refers to pthread_mutex.o(.text) for pthread_mutex_init
    pthread_rwlock.o(.text) refers to pthread_cond.o(.text) for pthread_cond_init
    pthread_rwlock.o(.text) refers to ipc.o(.text) for rt_sem_trytake
    pthread_tls.o(.text) refers to kservice.o(.text) for rt_kprintf
    pthread_tls.o(.text) refers to thread.o(.text) for rt_thread_self
    pthread_tls.o(.text) refers to mem.o(.text) for rt_malloc
    pthread_tls.o(.text) refers to scheduler.o(.text) for rt_enter_critical
    pthread_tls.o(.text) refers to pthread_tls.o(.constdata) for .constdata
    pthread_tls.o(.text) refers to pthread_tls.o(.bss) for .bss
    sched.o(.text) refers to thread.o(.text) for rt_thread_yield
    semaphore.o(.text) refers to ipc.o(.text) for rt_sem_init
    semaphore.o(.text) refers to mem.o(.text) for rt_free
    semaphore.o(.text) refers to kservice.o(.text) for rt_set_errno
    semaphore.o(.text) refers to clock_time.o(.text) for clock_time_to_tick
    semaphore.o(.text) refers to strncmp.o(.text) for strncmp
    semaphore.o(.text) refers to semaphore.o(.bss) for .bss
    semaphore.o(.text) refers to semaphore.o(.data) for .data
    api_lib.o(.text) refers to api_msg.o(.text) for netconn_alloc
    api_lib.o(.text) refers to tcpip.o(.text) for tcpip_apimsg
    api_lib.o(.text) refers to kservice.o(.text) for rt_kprintf
    api_lib.o(.text) refers to sys_arch.o(.text) for sys_arch_assert
    api_lib.o(.text) refers to mem.o(.text) for rt_free
    api_lib.o(.text) refers to memp.o(.constdata) for memp_sizes
    api_msg.o(.text) refers to sys_arch.o(.text) for sys_mbox_valid
    api_msg.o(.text) refers to pbuf.o(.text) for pbuf_alloc
    api_msg.o(.text) refers to mem.o(.text) for rt_malloc
    api_msg.o(.text) refers to netbuf.o(.text) for netbuf_delete
    api_msg.o(.text) refers to kservice.o(.text) for rt_kprintf
    api_msg.o(.text) refers to tcp.o(.text) for tcp_recved
    api_msg.o(.text) refers to tcp_out.o(.text) for tcp_write
    api_msg.o(.text) refers to memp.o(.constdata) for memp_sizes
    api_msg.o(.text) refers to ip.o(.data) for current_iphdr_src
    api_msg.o(.text) refers to raw.o(.text) for raw_new
    api_msg.o(.text) refers to udp.o(.text) for udp_new
    api_msg.o(.text) refers to shell.o(.text) for strcmp
    api_msg.o(.text) refers to dns.o(.text) for dns_gethostbyname
    err.o(.text) refers to err.o(.data) for .data
    err.o(.data) refers to err.o(.conststring) for .conststring
    netbuf.o(.text) refers to mem.o(.text) for rt_malloc
    netbuf.o(.text) refers to pbuf.o(.text) for pbuf_free
    netbuf.o(.text) refers to kservice.o(.text) for rt_kprintf
    netbuf.o(.text) refers to sys_arch.o(.text) for sys_arch_assert
    netbuf.o(.text) refers to memp.o(.constdata) for memp_sizes
    netdb.o(.text) refers to api_lib.o(.text) for netconn_gethostbyname
    netdb.o(.text) refers to strlen.o(.text) for strlen
    netdb.o(.text) refers to rt_memcpy_v6.o(.text) for __aeabi_memcpy
    netdb.o(.text) refers to mem.o(.text) for rt_free
    netdb.o(.text) refers to atoi.o(.text) for atoi
    netdb.o(.text) refers to kservice.o(.text) for rt_kprintf
    netdb.o(.text) refers to sys_arch.o(.text) for sys_arch_assert
    netdb.o(.text) refers to rt_memclr_w.o(.text) for __aeabi_memclr4
    netdb.o(.text) refers to def.o(.text) for lwip_htons
    netdb.o(.text) refers to netdb.o(.data) for .data
    netdb.o(.text) refers to netdb.o(.bss) for .bss
    netdb.o(.text) refers to memp.o(.constdata) for memp_sizes
    netifapi.o(.text) refers to netif.o(.text) for netif_add
    netifapi.o(.text) refers to sys_arch.o(.text) for sys_sem_signal
    netifapi.o(.text) refers to tcpip.o(.text) for tcpip_netifapi
    sockets.o(.text) refers to kservice.o(.text) for _rt_errno
    sockets.o(.text) refers to sys_arch.o(.text) for sys_arch_protect
    sockets.o(.text) refers to api_lib.o(.text) for netconn_accept
    sockets.o(.text) refers to def.o(.text) for lwip_htons
    sockets.o(.text) refers to rt_memcpy_v6.o(.text) for __aeabi_memcpy
    sockets.o(.text) refers to pbuf.o(.text) for pbuf_free
    sockets.o(.text) refers to sockets.o(.bss) for .bss
    sockets.o(.text) refers to sockets.o(.data) for .data
    sockets.o(.text) refers to sockets.o(.constdata) for .constdata
    sockets.o(.text) refers to netbuf.o(.text) for netbuf_delete
    sockets.o(.text) refers to tcpip.o(.text) for tcpip_callback_with_block
    tcpip.o(.text) refers to timers.o(.text) for sys_timeouts_mbox_fetch
    tcpip.o(.text) refers to etharp.o(.text) for ethernet_input
    tcpip.o(.text) refers to ip.o(.text) for ip_input
    tcpip.o(.text) refers to mem.o(.text) for rt_free
    tcpip.o(.text) refers to kservice.o(.text) for rt_kprintf
    tcpip.o(.text) refers to sys_arch.o(.text) for sys_arch_assert
    tcpip.o(.text) refers to init.o(.text) for lwip_init
    tcpip.o(.text) refers to pbuf.o(.text) for pbuf_free
    tcpip.o(.text) refers to tcpip.o(.data) for .data
    tcpip.o(.text) refers to memp.o(.constdata) for memp_sizes
    sys_arch.o(.text) refers to device.o(.text) for rt_device_init
    sys_arch.o(.text) refers to thread.o(.text) for rt_thread_self
    sys_arch.o(.text) refers to kservice.o(.text) for rt_kprintf
    sys_arch.o(.text) refers to scheduler.o(.text) for rt_enter_critical
    sys_arch.o(.text) refers to netif.o(.text) for netif_add
    sys_arch.o(.text) refers to dhcp.o(.text) for dhcp_start
    sys_arch.o(.text) refers to ipc.o(.text) for rt_sem_release
    sys_arch.o(.text) refers to tcpip.o(.text) for tcpip_init
    sys_arch.o(.text) refers to context_rvds.o(.text) for rt_hw_interrupt_disable
    sys_arch.o(.text) refers to irq.o(.text) for rt_interrupt_get_nest
    sys_arch.o(.text) refers to clock.o(.text) for rt_tick_get
    sys_arch.o(.text) refers to sys_arch.o(.constdata) for .constdata
    sys_arch.o(.text) refers to object.o(.data) for rt_object_container
    sys_arch.o(.text) refers to netif.o(.data) for netif_default
    sys_arch.o(.text) refers to sys_arch.o(.data) for .data
    sys_arch.o(.rti_fn.3) refers to sys_arch.o(.text) for lwip_system_init
    dhcp.o(.text) refers to kservice.o(.text) for rt_kprintf
    dhcp.o(.text) refers to sys_arch.o(.text) for sys_arch_assert
    dhcp.o(.text) refers to pbuf.o(.text) for pbuf_free
    dhcp.o(.text) refers to def.o(.text) for lwip_htonl
    dhcp.o(.text) refers to udp.o(.text) for udp_sendto_if
    dhcp.o(.text) refers to dhcp.o(.constdata) for .constdata
    dhcp.o(.text) refers to dhcp.o(.data) for .data
    dhcp.o(.text) refers to ip_addr.o(.constdata) for ip_addr_broadcast
    dhcp.o(.text) refers to netif.o(.text) for netif_set_down
    dhcp.o(.text) refers to netif.o(.data) for netif_list
    dhcp.o(.text) refers to ip_addr.o(.constdata) for ip_addr_any
    dhcp.o(.text) refers to dns.o(.text) for dns_setserver
    dhcp.o(.text) refers to rt_memclr_w.o(.text) for __aeabi_memclr4
    dhcp.o(.text) refers to mem.o(.text) for rt_free
    dhcp.o(.text) refers to dhcp.o(.bss) for .bss
    dns.o(.text) refers to pbuf.o(.text) for pbuf_copy_partial
    dns.o(.text) refers to def.o(.text) for lwip_htons
    dns.o(.text) refers to ip_addr.o(.text) for ipaddr_addr
    dns.o(.text) refers to udp.o(.text) for udp_new
    dns.o(.text) refers to kservice.o(.text) for rt_kprintf
    dns.o(.text) refers to sys_arch.o(.text) for sys_arch_assert
    dns.o(.text) refers to strlen.o(.text) for strlen
    dns.o(.text) refers to dns.o(.data) for .data
    dns.o(.text) refers to dns.o(.bss) for .bss
    dns.o(.text) refers to ip_addr.o(.constdata) for ip_addr_any
    dns.o(.text) refers to shell.o(.text) for strcmp
    dns.o(.text) refers to rt_memcpy_v6.o(.text) for __aeabi_memcpy
    init.o(.text) refers to kservice.o(.text) for rt_kprintf
    init.o(.text) refers to sys_arch.o(.text) for sys_init
    init.o(.text) refers to netif.o(.text) for netif_init
    init.o(.text) refers to sockets.o(.text) for lwip_socket_init
    init.o(.text) refers to dns.o(.text) for dns_init
    init.o(.text) refers to timers.o(.text) for sys_timeouts_init
    init.o(.text) refers to init.o(.constdata) for .constdata
    netif.o(.text) refers to tcp.o(.text) for tcp_abort
    netif.o(.text) refers to kservice.o(.text) for rt_kprintf
    netif.o(.text) refers to sys_arch.o(.text) for sys_arch_assert
    netif.o(.text) refers to etharp.o(.text) for etharp_request
    netif.o(.text) refers to dhcp.o(.text) for dhcp_network_changed
    netif.o(.text) refers to tcp.o(.data) for tcp_active_pcbs
    netif.o(.text) refers to netif.o(.data) for .data
    pbuf.o(.text) refers to sys_arch.o(.text) for sys_arch_protect
    pbuf.o(.text) refers to tcp.o(.text) for tcp_segs_free
    pbuf.o(.text) refers to tcpip.o(.text) for tcpip_callback_with_block
    pbuf.o(.text) refers to kservice.o(.text) for rt_kprintf
    pbuf.o(.text) refers to mem.o(.text) for rt_free
    pbuf.o(.text) refers to pbuf.o(.data) for .data
    pbuf.o(.text) refers to tcp.o(.data) for tcp_active_pcbs
    pbuf.o(.text) refers to memp.o(.constdata) for memp_sizes
    pbuf.o(.text) refers to rt_memcpy_v6.o(.text) for __aeabi_memcpy
    pbuf.o(.text) refers to strlen.o(.text) for strlen
    raw.o(.text) refers to pbuf.o(.text) for pbuf_header
    raw.o(.text) refers to kservice.o(.text) for rt_kprintf
    raw.o(.text) refers to sys_arch.o(.text) for sys_arch_assert
    raw.o(.text) refers to ip.o(.text) for ip_route
    raw.o(.text) refers to mem.o(.text) for rt_free
    raw.o(.text) refers to rt_memclr_w.o(.text) for __aeabi_memclr4
    raw.o(.text) refers to raw.o(.data) for .data
    raw.o(.text) refers to ip.o(.data) for current_iphdr_dest
    raw.o(.text) refers to memp.o(.constdata) for memp_sizes
    sys.o(.text) refers to sys_arch.o(.text) for sys_sem_new
    tcp.o(.text) refers to pbuf.o(.text) for pbuf_free
    tcp.o(.text) refers to mem.o(.text) for rt_free
    tcp.o(.text) refers to kservice.o(.text) for rt_kprintf
    tcp.o(.text) refers to sys_arch.o(.text) for sys_arch_assert
    tcp.o(.text) refers to tcp_out.o(.text) for tcp_zero_window_probe
    tcp.o(.text) refers to tcp.o(.data) for .data
    tcp.o(.text) refers to tcp.o(.constdata) for .constdata
    tcp.o(.text) refers to timers.o(.text) for tcp_timer_needed
    tcp.o(.text) refers to ip.o(.text) for ip_route
    tcp.o(.text) refers to rt_memcpy_w.o(.text) for __aeabi_memcpy4
    tcp.o(.text) refers to rt_memclr_w.o(.text) for __aeabi_memclr4
    tcp.o(.text) refers to memp.o(.constdata) for memp_sizes
    tcp.o(.constdata) refers to tcp.o(.conststring) for .conststring
    tcp.o(.constdata) refers to tcp.o(.data) for tcp_listen_pcbs
    tcp_in.o(.text) refers to def.o(.text) for lwip_ntohs
    tcp_in.o(.text) refers to tcp.o(.text) for tcp_segs_free
    tcp_in.o(.text) refers to pbuf.o(.text) for pbuf_realloc
    tcp_in.o(.text) refers to tcp_out.o(.text) for tcp_rexmit_fast
    tcp_in.o(.text) refers to kservice.o(.text) for rt_kprintf
    tcp_in.o(.text) refers to sys_arch.o(.text) for sys_arch_assert
    tcp_in.o(.text) refers to tcp_in.o(.data) for .data
    tcp_in.o(.text) refers to tcp.o(.data) for tcp_ticks
    tcp_in.o(.text) refers to tcp_in.o(.bss) for .bss
    tcp_in.o(.text) refers to timers.o(.text) for tcp_timer_needed
    tcp_in.o(.text) refers to ip.o(.data) for current_iphdr_src
    tcp_in.o(.text) refers to ip_addr.o(.text) for ip4_addr_isbroadcast
    tcp_in.o(.text) refers to mem.o(.text) for rt_free
    tcp_out.o(.text) refers to pbuf.o(.text) for pbuf_alloc
    tcp_out.o(.text) refers to kservice.o(.text) for rt_kprintf
    tcp_out.o(.text) refers to sys_arch.o(.text) for sys_arch_assert
    tcp_out.o(.text) refers to def.o(.text) for lwip_htons
    tcp_out.o(.text) refers to mem.o(.text) for rt_malloc
    tcp_out.o(.text) refers to tcp.o(.text) for tcp_seg_free
    tcp_out.o(.text) refers to memp.o(.constdata) for memp_sizes
    tcp_out.o(.text) refers to tcp_out.o(.constdata) for .constdata
    tcp_out.o(.text) refers to rt_memcpy_v6.o(.text) for __aeabi_memcpy
    tcp_out.o(.text) refers to ip.o(.text) for ip_output
    tcp_out.o(.text) refers to tcp.o(.data) for tcp_ticks
    tcp_out.o(.text) refers to tcp_in.o(.data) for tcp_input_pcb
    timers.o(.text) refers to mem.o(.text) for rt_malloc
    timers.o(.text) refers to kservice.o(.text) for rt_kprintf
    timers.o(.text) refers to sys_arch.o(.text) for sys_arch_assert
    timers.o(.text) refers to tcp.o(.text) for tcp_tmr
    timers.o(.text) refers to etharp.o(.text) for etharp_tmr
    timers.o(.text) refers to dhcp.o(.text) for dhcp_coarse_tmr
    timers.o(.text) refers to dns.o(.text) for dns_tmr
    timers.o(.text) refers to memp.o(.constdata) for memp_sizes
    timers.o(.text) refers to timers.o(.data) for .data
    timers.o(.text) refers to tcp.o(.data) for tcp_active_pcbs
    udp.o(.text) refers to def.o(.text) for lwip_ntohs
    udp.o(.text) refers to pbuf.o(.text) for pbuf_header
    udp.o(.text) refers to ip_addr.o(.text) for ip4_addr_isbroadcast
    udp.o(.text) refers to kservice.o(.text) for rt_kprintf
    udp.o(.text) refers to sys_arch.o(.text) for sys_arch_assert
    udp.o(.text) refers to icmp.o(.text) for icmp_dest_unreach
    udp.o(.text) refers to ip.o(.text) for ip_output_if
    udp.o(.text) refers to mem.o(.text) for rt_free
    udp.o(.text) refers to rt_memclr_w.o(.text) for __aeabi_memclr4
    udp.o(.text) refers to ip.o(.data) for current_iphdr_dest
    udp.o(.text) refers to udp.o(.data) for .data
    udp.o(.text) refers to memp.o(.constdata) for memp_sizes
    icmp.o(.text) refers to def.o(.text) for lwip_ntohs
    icmp.o(.text) refers to pbuf.o(.text) for pbuf_header
    icmp.o(.text) refers to ip_addr.o(.text) for ip4_addr_isbroadcast
    icmp.o(.text) refers to inet_chksum.o(.text) for inet_chksum_pbuf
    icmp.o(.text) refers to kservice.o(.text) for rt_kprintf
    icmp.o(.text) refers to sys_arch.o(.text) for sys_arch_assert
    icmp.o(.text) refers to ip.o(.text) for ip_output_if
    icmp.o(.text) refers to rt_memcpy_v6.o(.text) for __aeabi_memcpy
    icmp.o(.text) refers to ip.o(.data) for current_iphdr_dest
    inet_chksum.o(.text) refers to def.o(.text) for lwip_htons
    inet_chksum.o(.text) refers to kservice.o(.text) for rt_kprintf
    inet_chksum.o(.text) refers to sys_arch.o(.text) for sys_arch_assert
    ip.o(.text) refers to def.o(.text) for lwip_ntohs
    ip.o(.text) refers to pbuf.o(.text) for pbuf_free
    ip.o(.text) refers to ip_addr.o(.text) for ip4_addr_isbroadcast
    ip.o(.text) refers to raw.o(.text) for raw_input
    ip.o(.text) refers to udp.o(.text) for udp_input
    ip.o(.text) refers to tcp_in.o(.text) for tcp_input
    ip.o(.text) refers to icmp.o(.text) for icmp_input
    ip.o(.text) refers to kservice.o(.text) for rt_kprintf
    ip.o(.text) refers to sys_arch.o(.text) for sys_arch_assert
    ip.o(.text) refers to netif.o(.data) for netif_list
    ip.o(.text) refers to ip.o(.data) for .data
    ip_addr.o(.text) refers to def.o(.text) for lwip_htonl
    ip_addr.o(.text) refers to kservice.o(.text) for rt_kprintf
    ip_addr.o(.text) refers to sys_arch.o(.text) for sys_arch_assert
    ip_addr.o(.text) refers to ip_addr.o(.bss) for .bss
    etharp.o(.text) refers to kservice.o(.text) for rt_kprintf
    etharp.o(.text) refers to sys_arch.o(.text) for sys_arch_assert
    etharp.o(.text) refers to pbuf.o(.text) for pbuf_free
    etharp.o(.text) refers to mem.o(.text) for rt_free
    etharp.o(.text) refers to ip_addr.o(.text) for ip4_addr_isbroadcast
    etharp.o(.text) refers to def.o(.text) for lwip_htons
    etharp.o(.text) refers to etharp.o(.bss) for .bss
    etharp.o(.text) refers to etharp.o(.constdata) for .constdata
    etharp.o(.text) refers to ip.o(.text) for ip_input
    etharp.o(.text) refers to etharp.o(.data) for .data
    etharp.o(.text) refers to memp.o(.constdata) for memp_sizes
    ethernetif.o(.text) refers to ipc.o(.text) for rt_mb_send
    ethernetif.o(.text) refers to device.o(.text) for rt_device_init
    ethernetif.o(.text) refers to netif.o(.text) for netif_set_default
    ethernetif.o(.text) refers to dhcp.o(.text) for dhcp_start
    ethernetif.o(.text) refers to mem.o(.text) for rt_malloc
    ethernetif.o(.text) refers to kservice.o(.text) for rt_memset
    ethernetif.o(.text) refers to thread.o(.text) for rt_thread_find
    ethernetif.o(.text) refers to netifapi.o(.text) for netifapi_netif_add
    ethernetif.o(.text) refers to context_rvds.o(.text) for rt_hw_interrupt_disable
    ethernetif.o(.text) refers to sys_arch.o(.text) for sys_arch_assert
    ethernetif.o(.text) refers to pbuf.o(.text) for pbuf_free
    ethernetif.o(.text) refers to strlen.o(.text) for strlen
    ethernetif.o(.text) refers to strncmp.o(.text) for strncmp
    ethernetif.o(.text) refers to ip_addr.o(.text) for ipaddr_aton
    ethernetif.o(.text) refers to ethernetif.o(.bss) for .bss
    ethernetif.o(.text) refers to netif.o(.data) for netif_default
    ethernetif.o(.text) refers to etharp.o(.text) for etharp_output
    ethernetif.o(.text) refers to tcpip.o(.text) for tcpip_input
    ethernetif.o(.text) refers to ethernetif.o(.constdata) for .constdata
    ethernetif.o(.text) refers to dns.o(.text) for dns_setserver
    ethernetif.o(.text) refers to scheduler.o(.text) for rt_enter_critical
    ethernetif.o(.text) refers to strcpy.o(.text) for strcpy
    ethernetif.o(.text) refers to tcp.o(.data) for tcp_active_pcbs
    ethernetif.o(.text) refers to tcp.o(.constdata) for tcp_state_str
    ethernetif.o(.rti_fn.2) refers to ethernetif.o(.text) for eth_system_device_init
    ethernetif.o(FSymTab) refers to ethernetif.o(.constdata) for __fsym_set_if_name
    ethernetif.o(FSymTab) refers to ethernetif.o(.constdata) for __fsym_set_if_desc
    ethernetif.o(FSymTab) refers to ethernetif.o(.text) for set_if
    ethernetif.o(FSymTab) refers to ethernetif.o(.constdata) for __fsym_set_dns_name
    ethernetif.o(FSymTab) refers to ethernetif.o(.constdata) for __fsym_set_dns_desc
    ethernetif.o(FSymTab) refers to ethernetif.o(.text) for set_dns
    ethernetif.o(FSymTab) refers to ethernetif.o(.constdata) for __fsym_list_if_name
    ethernetif.o(FSymTab) refers to ethernetif.o(.constdata) for __fsym_list_if_desc
    ethernetif.o(FSymTab) refers to ethernetif.o(.text) for list_if
    ethernetif.o(FSymTab) refers to ethernetif.o(.constdata) for __fsym_list_tcps_name
    ethernetif.o(FSymTab) refers to ethernetif.o(.constdata) for __fsym_list_tcps_desc
    ethernetif.o(FSymTab) refers to ethernetif.o(.text) for list_tcps
    nanohttp-base64.o(.text) refers to nanohttp-base64.o(.constdata) for .constdata
    nanohttp-client.o(.text) refers to nanohttp-socket.o(.text) for hsocket_module_init
    nanohttp-client.o(.text) refers to _printf_percent.o(.ARM.Collect$$_printf_percent$$00000000) for _printf_percent
    nanohttp-client.o(.text) refers to _printf_s.o(.ARM.Collect$$_printf_percent$$00000014) for _printf_s
    nanohttp-client.o(.text) refers to _printf_str.o(.text) for _printf_str
    nanohttp-client.o(.text) refers to _printf_d.o(.ARM.Collect$$_printf_percent$$00000009) for _printf_d
    nanohttp-client.o(.text) refers to _printf_dec.o(.text) for _printf_int_dec
    nanohttp-client.o(.text) refers to mem.o(.text) for rt_malloc
    nanohttp-client.o(.text) refers to nanohttp-common.o(.text) for herror_message
    nanohttp-client.o(.text) refers to nanohttp-logging.o(.text) for hlog_warn
    nanohttp-client.o(.text) refers to nanohttp-stream.o(.text) for http_output_stream_free
    nanohttp-client.o(.text) refers to shell.o(.text) for strcmp
    nanohttp-client.o(.text) refers to rt_memclr_w.o(.text) for __aeabi_memclr4
    nanohttp-client.o(.text) refers to __2sprintf.o(.text) for __2sprintf
    nanohttp-client.o(.text) refers to nanohttp-base64.o(.text) for base64_encode
    nanohttp-client.o(.text) refers to sys_time.o(.text) for time
    nanohttp-client.o(.text) refers to localtime_internal.o(.text) for localtime_r
    nanohttp-client.o(.text) refers to strftime.o(.text) for strftime
    nanohttp-client.o(.text) refers to nanohttp-response.o(.text) for hresponse_new_from_socket
    nanohttp-client.o(.text) refers to __2snprintf.o(.text) for __2snprintf
    nanohttp-client.o(.text) refers to strcat.o(.text) for strcat
    nanohttp-client.o(.text) refers to nanohttp-client.o(.constdata) for .constdata
    nanohttp-client.o(.text) refers to nanohttp-client.o(.data) for .data
    nanohttp-client.o(.text) refers to strlen.o(.text) for strlen
    nanohttp-client.o(.text) refers to fopen.o(.text) for fopen
    nanohttp-client.o(.text) refers to freadfast.o(.text) for fread
    nanohttp-client.o(.text) refers to fclose.o(.text) for fclose
    nanohttp-client.o(.text) refers to feof.o(.text) for feof
    nanohttp-common.o(.text) refers to strlen.o(.text) for strlen
    nanohttp-common.o(.text) refers to toupper.o(.text) for toupper
    nanohttp-common.o(.text) refers to mem.o(.text) for rt_malloc
    nanohttp-common.o(.text) refers to strcpy.o(.text) for strcpy
    nanohttp-common.o(.text) refers to c89vsprintf.o(.text) for __c89vsprintf
    nanohttp-common.o(.text) refers to nanohttp-logging.o(.text) for hlog_verbose
    nanohttp-common.o(.text) refers to strtok_r.o(.text) for strtok_r
    nanohttp-common.o(.text) refers to shell.o(.text) for strcmp
    nanohttp-common.o(.text) refers to strncpy.o(.text) for strncpy
    nanohttp-common.o(.text) refers to atoi.o(.text) for atoi
    nanohttp-common.o(.text) refers to nanohttp-common.o(.constdata) for .constdata
    nanohttp-common.o(.text) refers to sys_remove.o(.text) for remove
    nanohttp-logging.o(.text) refers to _printf_percent.o(.ARM.Collect$$_printf_percent$$00000000) for _printf_percent
    nanohttp-logging.o(.text) refers to _printf_d.o(.ARM.Collect$$_printf_percent$$00000009) for _printf_d
    nanohttp-logging.o(.text) refers to _printf_s.o(.ARM.Collect$$_printf_percent$$00000014) for _printf_s
    nanohttp-logging.o(.text) refers to _printf_dec.o(.text) for _printf_int_dec
    nanohttp-logging.o(.text) refers to _printf_str.o(.text) for _printf_str
    nanohttp-logging.o(.text) refers to strncpy.o(.text) for strncpy
    nanohttp-logging.o(.text) refers to thread.o(.text) for rt_thread_self
    nanohttp-logging.o(.text) refers to __2sprintf.o(.text) for __2sprintf
    nanohttp-logging.o(.text) refers to c89vsprintf.o(.text) for __c89vsprintf
    nanohttp-logging.o(.text) refers to kservice.o(.text) for rt_kprintf
    nanohttp-logging.o(.text) refers to nanohttp-logging.o(.data) for .data
    nanohttp-logging.o(.text) refers to nanohttp-logging.o(.bss) for .bss
    nanohttp-mime.o(.text) refers to _printf_percent.o(.ARM.Collect$$_printf_percent$$00000000) for _printf_percent
    nanohttp-mime.o(.text) refers to _printf_s.o(.ARM.Collect$$_printf_percent$$00000014) for _printf_s
    nanohttp-mime.o(.text) refers to _printf_str.o(.text) for _printf_str
    nanohttp-mime.o(.text) refers to _printf_d.o(.ARM.Collect$$_printf_percent$$00000009) for _printf_d
    nanohttp-mime.o(.text) refers to _printf_p.o(.ARM.Collect$$_printf_percent$$00000002) for _printf_p
    nanohttp-mime.o(.text) refers to _printf_dec.o(.text) for _printf_int_dec
    nanohttp-mime.o(.text) refers to _printf_hex_int_ll_ptr.o(.text) for _printf_longlong_hex
    nanohttp-mime.o(.text) refers to rt_memcpy_v6.o(.text) for __aeabi_memcpy
    nanohttp-mime.o(.text) refers to rt_memcpy_w.o(.text) for __aeabi_memcpy4
    nanohttp-mime.o(.text) refers to __2fprintf.o(.text) for __2fprintf
    nanohttp-mime.o(.text) refers to __2sprintf.o(.text) for __2sprintf
    nanohttp-mime.o(.text) refers to strlen.o(.text) for strlen
    nanohttp-mime.o(.text) refers to feof.o(.text) for feof
    nanohttp-mime.o(.text) refers to freadfast.o(.text) for fread
    nanohttp-mime.o(.text) refers to nanohttp-stream.o(.text) for http_input_stream_is_ready
    nanohttp-mime.o(.text) refers to nanohttp-common.o(.text) for herror_message
    nanohttp-mime.o(.text) refers to nanohttp-logging.o(.text) for hlog_error
    nanohttp-mime.o(.text) refers to mem.o(.text) for rt_malloc
    nanohttp-mime.o(.text) refers to fopen.o(.text) for fopen
    nanohttp-mime.o(.text) refers to strcpy.o(.text) for strcpy
    nanohttp-mime.o(.text) refers to fclose.o(.text) for fclose
    nanohttp-mime.o(.text) refers to stdio_streams.o(.bss) for __stderr
    nanohttp-mime.o(.text) refers to nanohttp-mime.o(.constdata) for .constdata
    nanohttp-mime.o(.text) refers to fwritefast.o(.text) for fwrite
    nanohttp-mime.o(.text) refers to shell.o(.text) for strcmp
    nanohttp-request.o(.text) refers to strtok_r.o(.text) for strtok_r
    nanohttp-request.o(.text) refers to shell.o(.text) for strcmp
    nanohttp-request.o(.text) refers to strncpy.o(.text) for strncpy
    nanohttp-request.o(.text) refers to mem.o(.text) for rt_malloc
    nanohttp-request.o(.text) refers to kservice.o(.text) for _rt_errno
    nanohttp-request.o(.text) refers to strerror.o(.text) for strerror
    nanohttp-request.o(.text) refers to nanohttp-logging.o(.text) for hlog_error
    nanohttp-request.o(.text) refers to nanohttp-common.o(.text) for hpairnode_parse
    nanohttp-request.o(.text) refers to nanohttp-stream.o(.text) for http_input_stream_free
    nanohttp-request.o(.text) refers to rt_memclr_w.o(.text) for __aeabi_memclr4
    nanohttp-request.o(.text) refers to nanohttp-socket.o(.text) for hsocket_read
    nanohttp-request.o(.text) refers to nanohttp-mime.o(.text) for mime_get_attachments
    nanohttp-request.o(.text) refers to nanohttp-request.o(.constdata) for .constdata
    nanohttp-response.o(.text) refers to mem.o(.text) for rt_malloc
    nanohttp-response.o(.text) refers to strtok_r.o(.text) for strtok_r
    nanohttp-response.o(.text) refers to shell.o(.text) for strcmp
    nanohttp-response.o(.text) refers to atoi.o(.text) for atoi
    nanohttp-response.o(.text) refers to strncpy.o(.text) for strncpy
    nanohttp-response.o(.text) refers to strlen.o(.text) for strlen
    nanohttp-response.o(.text) refers to nanohttp-common.o(.text) for hpairnode_parse
    nanohttp-response.o(.text) refers to kservice.o(.text) for _rt_errno
    nanohttp-response.o(.text) refers to strerror.o(.text) for strerror
    nanohttp-response.o(.text) refers to nanohttp-logging.o(.text) for hlog_error
    nanohttp-response.o(.text) refers to nanohttp-stream.o(.text) for http_input_stream_free
    nanohttp-response.o(.text) refers to nanohttp-socket.o(.text) for hsocket_read
    nanohttp-response.o(.text) refers to nanohttp-mime.o(.text) for mime_get_attachments
    nanohttp-response.o(.text) refers to nanohttp-response.o(.constdata) for .constdata
    nanohttp-server.o(.text) refers to _printf_percent.o(.ARM.Collect$$_printf_percent$$00000000) for _printf_percent
    nanohttp-server.o(.text) refers to _printf_d.o(.ARM.Collect$$_printf_percent$$00000009) for _printf_d
    nanohttp-server.o(.text) refers to _printf_s.o(.ARM.Collect$$_printf_percent$$00000014) for _printf_s
    nanohttp-server.o(.text) refers to _printf_dec.o(.text) for _printf_int_dec
    nanohttp-server.o(.text) refers to _printf_str.o(.text) for _printf_str
    nanohttp-server.o(.text) refers to _printf_pad.o(.text) for _printf_pre_padding
    nanohttp-server.o(.text) refers to _printf_p.o(.ARM.Collect$$_printf_percent$$00000002) for _printf_p
    nanohttp-server.o(.text) refers to _printf_n.o(.ARM.Collect$$_printf_percent$$00000001) for _printf_n
    nanohttp-server.o(.text) refers to _printf_charcount.o(.text) for _printf_charcount
    nanohttp-server.o(.text) refers to _printf_hex_int_ll_ptr.o(.text) for _printf_longlong_hex
    nanohttp-server.o(.text) refers to shell.o(.text) for strcmp
    nanohttp-server.o(.text) refers to atoi.o(.text) for atoi
    nanohttp-server.o(.text) refers to nanohttp-logging.o(.text) for hlog_verbose
    nanohttp-server.o(.text) refers to nanohttp-socket.o(.text) for hsocket_module_init
    nanohttp-server.o(.text) refers to pthread_mutex.o(.text) for pthread_mutex_init
    nanohttp-server.o(.text) refers to calloc.o(.text) for calloc
    nanohttp-server.o(.text) refers to nanohttp-common.o(.text) for herror_message
    nanohttp-server.o(.text) refers to mem.o(.text) for rt_malloc
    nanohttp-server.o(.text) refers to strcpy.o(.text) for strcpy
    nanohttp-server.o(.text) refers to kservice.o(.text) for _rt_errno
    nanohttp-server.o(.text) refers to strerror.o(.text) for strerror
    nanohttp-server.o(.text) refers to strncpy.o(.text) for strncpy
    nanohttp-server.o(.text) refers to __2sprintf.o(.text) for __2sprintf
    nanohttp-server.o(.text) refers to sys_time.o(.text) for time
    nanohttp-server.o(.text) refers to localtime_internal.o(.text) for localtime_r
    nanohttp-server.o(.text) refers to strftime.o(.text) for strftime
    nanohttp-server.o(.text) refers to strcat.o(.text) for strcat
    nanohttp-server.o(.text) refers to strlen.o(.text) for strlen
    nanohttp-server.o(.text) refers to nanohttp-stream.o(.text) for http_output_stream_new
    nanohttp-server.o(.text) refers to __2snprintf.o(.text) for __2snprintf
    nanohttp-server.o(.text) refers to nanohttp-server.o(.data) for .data
    nanohttp-server.o(.text) refers to nanohttp-server.o(.constdata) for .constdata
    nanohttp-server.o(.text) refers to nanohttp-server.o(.bss) for .bss
    nanohttp-server.o(.text) refers to pthread.o(.text) for pthread_exit
    nanohttp-server.o(.text) refers to strstr.o(.text) for strstr
    nanohttp-server.o(.text) refers to nanohttp-base64.o(.text) for base64_decode
    nanohttp-server.o(.text) refers to nanohttp-request.o(.text) for hrequest_new_from_socket
    nanohttp-server.o(.text) refers to strncasecmp.o(.text) for strncasecmp
    nanohttp-server.o(.text) refers to pthread_attr.o(.text) for pthread_attr_destroy
    nanohttp-server.o(.text) refers to sockets.o(.text) for lwip_select
    nanohttp-server.o(.text) refers to atol.o(.text) for atol
    nanohttp-server.o(.text) refers to fopen.o(.text) for fopen
    nanohttp-server.o(.text) refers to fclose.o(.text) for fclose
    nanohttp-server.o(.text) refers to freadfast.o(.text) for fread
    nanohttp-server.o(.text) refers to feof.o(.text) for feof
    nanohttp-server.o(.text) refers to thread.o(.text) for rt_thread_delay
    nanohttp-socket.o(.text) refers to rt_memclr_w.o(.text) for __aeabi_memclr4
    nanohttp-socket.o(.text) refers to sockets.o(.text) for lwip_socket
    nanohttp-socket.o(.text) refers to kservice.o(.text) for _rt_errno
    nanohttp-socket.o(.text) refers to strerror.o(.text) for strerror
    nanohttp-socket.o(.text) refers to netdb.o(.text) for lwip_gethostbyname
    nanohttp-socket.o(.text) refers to ip_addr.o(.text) for ipaddr_ntoa
    nanohttp-socket.o(.text) refers to def.o(.text) for lwip_htons
    nanohttp-socket.o(.text) refers to nanohttp-logging.o(.text) for hlog_verbose
    nanohttp-socket.o(.text) refers to nanohttp-common.o(.text) for herror_new
    nanohttp-socket.o(.text) refers to dfs_posix.o(.text) for close
    nanohttp-socket.o(.text) refers to nanohttp-ssl.o(.text) for hssl_write
    nanohttp-socket.o(.text) refers to strlen.o(.text) for strlen
    nanohttp-socket.o(.text) refers to nanohttp-server.o(.text) for httpd_get_timeout
    nanohttp-socket.o(.text) refers to nanohttp-socket.o(.constdata) for .constdata
    nanohttp-ssl.o(.text) refers to nanohttp-socket.o(.text) for hsocket_select_read
    nanohttp-ssl.o(.text) refers to kservice.o(.text) for _rt_errno
    nanohttp-ssl.o(.text) refers to strerror.o(.text) for strerror
    nanohttp-ssl.o(.text) refers to nanohttp-common.o(.text) for herror_new
    nanohttp-ssl.o(.text) refers to sockets.o(.text) for lwip_send
    nanohttp-stream.o(.text) refers to _printf_percent.o(.ARM.Collect$$_printf_percent$$00000000) for _printf_percent
    nanohttp-stream.o(.text) refers to _printf_x.o(.ARM.Collect$$_printf_percent$$0000000C) for _printf_x
    nanohttp-stream.o(.text) refers to _printf_hex_int_ll_ptr.o(.text) for _printf_longlong_hex
    nanohttp-stream.o(.text) refers to nanohttp-common.o(.text) for hpairnode_get_ignore_case
    nanohttp-stream.o(.text) refers to shell.o(.text) for strcmp
    nanohttp-stream.o(.text) refers to mem.o(.text) for rt_malloc
    nanohttp-stream.o(.text) refers to nanohttp-logging.o(.text) for hlog_verbose
    nanohttp-stream.o(.text) refers to atoi.o(.text) for atoi
    nanohttp-stream.o(.text) refers to kservice.o(.text) for _rt_errno
    nanohttp-stream.o(.text) refers to strerror.o(.text) for strerror
    nanohttp-stream.o(.text) refers to fopen.o(.text) for fopen
    nanohttp-stream.o(.text) refers to strcpy.o(.text) for strcpy
    nanohttp-stream.o(.text) refers to fclose.o(.text) for fclose
    nanohttp-stream.o(.text) refers to nanohttp-socket.o(.text) for hsocket_read
    nanohttp-stream.o(.text) refers to strtol.o(.text) for strtol
    nanohttp-stream.o(.text) refers to feof.o(.text) for feof
    nanohttp-stream.o(.text) refers to freadfast.o(.text) for fread
    nanohttp-stream.o(.text) refers to nanohttp-stream.o(.constdata) for .constdata
    nanohttp-stream.o(.text) refers to __2sprintf.o(.text) for __2sprintf
    nanohttp-stream.o(.text) refers to strlen.o(.text) for strlen
    cjson.o(.text) refers to _printf_percent.o(.ARM.Collect$$_printf_percent$$00000000) for _printf_percent
    cjson.o(.text) refers to _printf_d.o(.ARM.Collect$$_printf_percent$$00000009) for _printf_d
    cjson.o(.text) refers to _printf_dec.o(.text) for _printf_int_dec
    cjson.o(.text) refers to _printf_f.o(.ARM.Collect$$_printf_percent$$00000003) for _printf_f
    cjson.o(.text) refers to printf1.o(x$fpl$printf1) for _printf_fp_dec
    cjson.o(.text) refers to _printf_e.o(.ARM.Collect$$_printf_percent$$00000004) for _printf_e
    cjson.o(.text) refers to _scanf_int.o(.text) for _scanf_int
    cjson.o(.text) refers to _printf_pad.o(.text) for _printf_pre_padding
    cjson.o(.text) refers to _printf_x.o(.ARM.Collect$$_printf_percent$$0000000C) for _printf_x
    cjson.o(.text) refers to _printf_hex_int_ll_ptr.o(.text) for _printf_longlong_hex
    cjson.o(.text) refers to tolower.o(.text) for tolower
    cjson.o(.text) refers to dflt_clz.o(x$fpl$dflt) for __aeabi_i2d
    cjson.o(.text) refers to dmul.o(x$fpl$dmul) for __aeabi_dmul
    cjson.o(.text) refers to daddsub_clz.o(x$fpl$dadd) for __aeabi_dadd
    cjson.o(.text) refers to daddsub_clz.o(x$fpl$dsub) for __aeabi_dsub
    cjson.o(.text) refers to pow.o(i.pow) for pow
    cjson.o(.text) refers to dfix.o(x$fpl$dfix) for __aeabi_d2iz
    cjson.o(.text) refers to dleqf.o(x$fpl$dleqf) for __aeabi_cdcmple
    cjson.o(.text) refers to drleqf.o(x$fpl$drleqf) for __aeabi_cdrcmple
    cjson.o(.text) refers to __2sprintf.o(.text) for __2sprintf
    cjson.o(.text) refers to floor.o(i.floor) for floor
    cjson.o(.text) refers to __0sscanf.o(.text) for __0sscanf
    cjson.o(.text) refers to cjson.o(.data) for .data
    cjson.o(.text) refers to h1_alloc.o(.text) for malloc
    cjson.o(.text) refers to h1_free.o(.text) for free
    cjson.o(.text) refers to strchr.o(.text) for strchr
    cjson.o(.text) refers to strncmp.o(.text) for strncmp
    cjson.o(.text) refers to rt_memclr_w.o(.text) for __aeabi_memclr4
    cjson.o(.text) refers to strlen.o(.text) for strlen
    cjson.o(.text) refers to cjson.o(.constdata) for .constdata
    cjson.o(.text) refers to strcpy.o(.text) for strcpy
    cjson.o(.text) refers to rt_memcpy_w.o(.text) for __aeabi_memcpy4
    cjson.o(.text) refers to f2d.o(x$fpl$f2d) for __aeabi_f2d
    cjson.o(.text) refers to rt_memcpy_v6.o(.text) for __aeabi_memcpy
    cjson.o(.data) refers to h1_alloc.o(.text) for malloc
    cjson.o(.data) refers to h1_free.o(.text) for free
    sys_remove.o(.text) refers (Special) to use_no_semi.o(.text) for __I$use$semihosting
    sys_remove.o(.text) refers (Special) to indicate_semi.o(.text) for __semihosting_library_function
    sys_remove.o(.text) refers to strlen.o(.text) for strlen
    sys_time.o(.text) refers (Special) to use_no_semi.o(.text) for __I$use$semihosting
    sys_time.o(.text) refers (Special) to indicate_semi.o(.text) for __semihosting_library_function
    malloc.o(.text) refers (Special) to hguard.o(.text) for __heap$guard
    malloc.o(.text) refers (Special) to init_alloc.o(.text) for _init_alloc
    malloc.o(.text) refers to rt_heap_descriptor_intlibspace.o(.text) for __rt_heap_descriptor
    malloc.o(.text) refers to heapstubs.o(.text) for __Heap_Alloc
    free.o(.text) refers (Special) to hguard.o(.text) for __heap$guard
    free.o(.text) refers to rt_heap_descriptor_intlibspace.o(.text) for __rt_heap_descriptor
    free.o(.text) refers to heapstubs.o(.text) for __Heap_Free
    calloc.o(.text) refers to h1_alloc.o(.text) for malloc
    calloc.o(.text) refers to rt_memclr.o(.text) for __aeabi_memclr
    h1_alloc.o(.text) refers (Special) to h1_init.o(.text) for __Heap_Initialize
    h1_alloc.o(.text) refers to rt_heap_descriptor_intlibspace.o(.text) for __rt_heap_descriptor
    h1_alloc.o(.text) refers to init_alloc.o(.text) for __Heap_Full
    h1_free.o(.text) refers to rt_heap_descriptor_intlibspace.o(.text) for __rt_heap_descriptor
    h1_alloc_mt.o(.text) refers (Special) to h1_init.o(.text) for __Heap_Initialize
    h1_alloc_mt.o(.text) refers to init_alloc.o(.text) for __Heap_Full
    h1_alloc_mt.o(.text) refers to rt_heap_descriptor_intlibspace.o(.text) for __rt_heap_descriptor
    h1_free_mt.o(.text) refers to rt_heap_descriptor_intlibspace.o(.text) for __rt_heap_descriptor
    heap2.o(i._FDIterate) refers to heap2.o(.constdata) for .constdata
    heap2.o(i.___Heap_ProvideMemory$realtime) refers to fdtree.o(i._FDTree_Delete) for _FDTree_Delete
    heap2.o(i.___Heap_ProvideMemory$realtime) refers to fdtree.o(i._FDTree_Insert) for _FDTree_Insert
    heap2.o(i.___Heap_Stats$realtime) refers to heap2.o(i._Heap2_StatsIterate) for _Heap2_StatsIterate
    heap2.o(i.___Heap_Valid$realtime) refers to heap2.o(i._FDIterate) for _FDIterate
    heap2.o(i.___Heap_Valid$realtime) refers to heap2.o(.constdata) for .constdata
    heap2.o(i._free$realtime) refers to rt_heap_descriptor_intlibspace.o(.text) for __rt_heap_descriptor
    heap2.o(i._free$realtime) refers to fdtree.o(i._FDTree_Delete) for _FDTree_Delete
    heap2.o(i._free$realtime) refers to fdtree.o(i._FDTree_Insert) for _FDTree_Insert
    heap2.o(i._malloc$realtime) refers to rt_heap_descriptor_intlibspace.o(.text) for __rt_heap_descriptor
    heap2.o(i._malloc$realtime) refers to fdtree.o(i._FDTree_FindFirst) for _FDTree_FindFirst
    heap2.o(i._malloc$realtime) refers to init_alloc.o(.text) for __Heap_Full
    heap2.o(i._malloc$realtime) refers to fdtree.o(i._FDTree_RemoveNode) for _FDTree_RemoveNode
    heap2.o(i._malloc$realtime) refers to fdtree.o(i._FDTree_Insert) for _FDTree_Insert
    heap2.o(i._posix_memalign$realtime) refers to rt_heap_descriptor_intlibspace.o(.text) for __rt_heap_descriptor
    heap2.o(i._posix_memalign$realtime) refers to fdtree.o(i._FDTree_FindFirst) for _FDTree_FindFirst
    heap2.o(i._posix_memalign$realtime) refers to init_alloc.o(.text) for __Heap_Full
    heap2.o(i._posix_memalign$realtime) refers to fdtree.o(i._FDTree_RemoveNode) for _FDTree_RemoveNode
    heap2.o(i._posix_memalign$realtime) refers to fdtree.o(i._FDTree_Insert) for _FDTree_Insert
    heap2.o(i._realloc$realtime) refers to rt_heap_descriptor_intlibspace.o(.text) for __rt_heap_descriptor
    heap2.o(i._realloc$realtime) refers to h1_free.o(.text) for free
    heap2.o(i._realloc$realtime) refers to h1_alloc.o(.text) for malloc
    heap2.o(i._realloc$realtime) refers to fdtree.o(i._FDTree_Delete) for _FDTree_Delete
    heap2.o(i._realloc$realtime) refers to fdtree.o(i._FDTree_Insert) for _FDTree_Insert
    heap2.o(i._realloc$realtime) refers to rt_memcpy_w.o(.text) for __aeabi_memcpy4
    heap2mt.o(i._FDIterate) refers to heap2mt.o(.constdata) for .constdata
    heap2mt.o(i.___Heap_Initialize$realtime$concurrent) refers to mutex_dummy.o(.text) for _mutex_initialize
    heap2mt.o(i.___Heap_ProvideMemory$realtime$concurrent) refers to fdtree.o(i._FDTree_Delete) for _FDTree_Delete
    heap2mt.o(i.___Heap_ProvideMemory$realtime$concurrent) refers to fdtree.o(i._FDTree_Insert) for _FDTree_Insert
    heap2mt.o(i.___Heap_Stats$realtime$concurrent) refers to heap2mt.o(i._Heap2_StatsIterate) for _Heap2_StatsIterate
    heap2mt.o(i.___Heap_Valid$realtime$concurrent) refers to heap2mt.o(i._FDIterate) for _FDIterate
    heap2mt.o(i.___Heap_Valid$realtime$concurrent) refers to heap2mt.o(.constdata) for .constdata
    heap2mt.o(i._free$realtime$concurrent) refers to rt_heap_descriptor_intlibspace.o(.text) for __rt_heap_descriptor
    heap2mt.o(i._free$realtime$concurrent) refers to fdtree.o(i._FDTree_Delete) for _FDTree_Delete
    heap2mt.o(i._free$realtime$concurrent) refers to fdtree.o(i._FDTree_Insert) for _FDTree_Insert
    heap2mt.o(i._malloc$realtime$concurrent) refers to rt_heap_descriptor_intlibspace.o(.text) for __rt_heap_descriptor
    heap2mt.o(i._malloc$realtime$concurrent) refers to fdtree.o(i._FDTree_FindFirst) for _FDTree_FindFirst
    heap2mt.o(i._malloc$realtime$concurrent) refers to init_alloc.o(.text) for __Heap_Full
    heap2mt.o(i._malloc$realtime$concurrent) refers to fdtree.o(i._FDTree_RemoveNode) for _FDTree_RemoveNode
    heap2mt.o(i._malloc$realtime$concurrent) refers to fdtree.o(i._FDTree_Insert) for _FDTree_Insert
    heap2mt.o(i._posix_memalign$realtime$concurrent) refers to rt_heap_descriptor_intlibspace.o(.text) for __rt_heap_descriptor
    heap2mt.o(i._posix_memalign$realtime$concurrent) refers to fdtree.o(i._FDTree_FindFirst) for _FDTree_FindFirst
    heap2mt.o(i._posix_memalign$realtime$concurrent) refers to init_alloc.o(.text) for __Heap_Full
    heap2mt.o(i._posix_memalign$realtime$concurrent) refers to fdtree.o(i._FDTree_RemoveNode) for _FDTree_RemoveNode
    heap2mt.o(i._posix_memalign$realtime$concurrent) refers to fdtree.o(i._FDTree_Insert) for _FDTree_Insert
    heap2mt.o(i._realloc$realtime$concurrent) refers to rt_heap_descriptor_intlibspace.o(.text) for __rt_heap_descriptor
    heap2mt.o(i._realloc$realtime$concurrent) refers to h1_free.o(.text) for free
    heap2mt.o(i._realloc$realtime$concurrent) refers to h1_alloc.o(.text) for malloc
    heap2mt.o(i._realloc$realtime$concurrent) refers to fdtree.o(i._FDTree_Delete) for _FDTree_Delete
    heap2mt.o(i._realloc$realtime$concurrent) refers to fdtree.o(i._FDTree_Insert) for _FDTree_Insert
    heap2mt.o(i._realloc$realtime$concurrent) refers to rt_memcpy_w.o(.text) for __aeabi_memcpy4
    tolower.o(.text) refers to rt_ctype_table.o(.text) for __rt_ctype_table
    toupper.o(.text) refers to rt_ctype_table.o(.text) for __rt_ctype_table
    c89vsprintf.o(.text) refers (Special) to _printf_a.o(.ARM.Collect$$_printf_percent$$00000006) for _printf_a
    c89vsprintf.o(.text) refers (Special) to _printf_c.o(.ARM.Collect$$_printf_percent$$00000013) for _printf_c
    c89vsprintf.o(.text) refers (Special) to _printf_charcount.o(.text) for _printf_charcount
    c89vsprintf.o(.text) refers (Special) to _printf_d.o(.ARM.Collect$$_printf_percent$$00000009) for _printf_d
    c89vsprintf.o(.text) refers (Special) to _printf_e.o(.ARM.Collect$$_printf_percent$$00000004) for _printf_e
    c89vsprintf.o(.text) refers (Special) to _printf_f.o(.ARM.Collect$$_printf_percent$$00000003) for _printf_f
    c89vsprintf.o(.text) refers (Special) to printf1.o(x$fpl$printf1) for _printf_fp_dec
    c89vsprintf.o(.text) refers (Special) to _printf_g.o(.ARM.Collect$$_printf_percent$$00000005) for _printf_g
    c89vsprintf.o(.text) refers (Special) to _printf_i.o(.ARM.Collect$$_printf_percent$$00000008) for _printf_i
    c89vsprintf.o(.text) refers (Special) to _printf_dec.o(.text) for _printf_int_dec
    c89vsprintf.o(.text) refers (Special) to _printf_l.o(.ARM.Collect$$_printf_percent$$00000012) for _printf_l
    c89vsprintf.o(.text) refers (Special) to _printf_lc.o(.ARM.Collect$$_printf_percent$$00000015) for _printf_lc
    c89vsprintf.o(.text) refers (Special) to _printf_ll.o(.ARM.Collect$$_printf_percent$$00000007) for _printf_ll
    c89vsprintf.o(.text) refers (Special) to _printf_lld.o(.ARM.Collect$$_printf_percent$$0000000E) for _printf_lld
    c89vsprintf.o(.text) refers (Special) to _printf_lli.o(.ARM.Collect$$_printf_percent$$0000000D) for _printf_lli
    c89vsprintf.o(.text) refers (Special) to _printf_llo.o(.ARM.Collect$$_printf_percent$$00000010) for _printf_llo
    c89vsprintf.o(.text) refers (Special) to _printf_llu.o(.ARM.Collect$$_printf_percent$$0000000F) for _printf_llu
    c89vsprintf.o(.text) refers (Special) to _printf_llx.o(.ARM.Collect$$_printf_percent$$00000011) for _printf_llx
    c89vsprintf.o(.text) refers (Special) to _printf_longlong_dec.o(.text) for _printf_longlong_dec
    c89vsprintf.o(.text) refers (Special) to _printf_hex_int_ll_ptr.o(.text) for _printf_longlong_hex
    c89vsprintf.o(.text) refers (Special) to _printf_oct_int_ll.o(.text) for _printf_longlong_oct
    c89vsprintf.o(.text) refers (Special) to _printf_ls.o(.ARM.Collect$$_printf_percent$$00000016) for _printf_ls
    c89vsprintf.o(.text) refers (Special) to _printf_n.o(.ARM.Collect$$_printf_percent$$00000001) for _printf_n
    c89vsprintf.o(.text) refers (Special) to _printf_o.o(.ARM.Collect$$_printf_percent$$0000000B) for _printf_o
    c89vsprintf.o(.text) refers (Special) to _printf_p.o(.ARM.Collect$$_printf_percent$$00000002) for _printf_p
    c89vsprintf.o(.text) refers (Special) to _printf_percent.o(.ARM.Collect$$_printf_percent$$00000000) for _printf_percent
    c89vsprintf.o(.text) refers (Special) to _printf_pad.o(.text) for _printf_post_padding
    c89vsprintf.o(.text) refers (Special) to _printf_s.o(.ARM.Collect$$_printf_percent$$00000014) for _printf_s
    c89vsprintf.o(.text) refers (Special) to _printf_str.o(.text) for _printf_str
    c89vsprintf.o(.text) refers (Special) to _printf_truncate.o(.text) for _printf_truncate_signed
    c89vsprintf.o(.text) refers (Special) to _printf_u.o(.ARM.Collect$$_printf_percent$$0000000A) for _printf_u
    c89vsprintf.o(.text) refers (Special) to _printf_wctomb.o(.text) for _printf_wctomb
    c89vsprintf.o(.text) refers (Special) to _printf_x.o(.ARM.Collect$$_printf_percent$$0000000C) for _printf_x
    c89vsprintf.o(.text) refers to _printf_char_common.o(.text) for _printf_char_common
    c89vsprintf.o(.text) refers to _sputc.o(.text) for _sputc
    __2fprintf.o(.text) refers to _printf_char_file.o(.text) for _printf_char_file
    __2sprintf.o(.text) refers to _printf_char_common.o(.text) for _printf_char_common
    __2sprintf.o(.text) refers to _sputc.o(.text) for _sputc
    __2snprintf.o(.text) refers to _printf_char_common.o(.text) for _printf_char_common
    __2snprintf.o(.text) refers to _sputc.o(.text) for _sputc
    __2snprintf.o(.text) refers to _snputc.o(.text) for _snputc
    noretval__2fprintf.o(.text) refers to _printf_char_file.o(.text) for _printf_char_file
    noretval__2sprintf.o(.text) refers to _printf_char_common.o(.text) for _printf_char_common
    noretval__2sprintf.o(.text) refers to _sputc.o(.text) for _sputc
    noretval__2snprintf.o(.text) refers to _printf_char_common.o(.text) for _printf_char_common
    noretval__2snprintf.o(.text) refers to _sputc.o(.text) for _sputc
    noretval__2snprintf.o(.text) refers to _snputc.o(.text) for _snputc
    __printf.o(.text) refers to _printf_percent.o(.ARM.Collect$$_printf_percent$$00000000) for _printf_percent
    _printf_str.o(.text) refers (Special) to _printf_char.o(.text) for _printf_cs_common
    _printf_str.o(.text) refers (Weak) to _printf_pad.o(.text) for _printf_pre_padding
    _printf_str.o(.text) refers (Weak) to _printf_pad.o(.text) for _printf_post_padding
    _printf_dec.o(.text) refers (Weak) to _printf_truncate.o(.text) for _printf_truncate_signed
    _printf_dec.o(.text) refers (Weak) to _printf_truncate.o(.text) for _printf_truncate_unsigned
    _printf_dec.o(.text) refers to _printf_intcommon.o(.text) for _printf_int_common
    _printf_hex_ll.o(.text) refers to _printf_intcommon.o(.text) for _printf_int_common
    _printf_hex_ll.o(.text) refers to _printf_hex_ll.o(.constdata) for .constdata
    _printf_hex_int.o(.text) refers (Weak) to _printf_truncate.o(.text) for _printf_truncate_unsigned
    _printf_hex_int.o(.text) refers to _printf_intcommon.o(.text) for _printf_int_common
    _printf_hex_int.o(.text) refers to _printf_hex_int.o(.constdata) for .constdata
    _printf_hex_int_ll.o(.text) refers to _printf_intcommon.o(.text) for _printf_int_common
    _printf_hex_int_ll.o(.text) refers (Weak) to _printf_truncate.o(.text) for _printf_truncate_unsigned
    _printf_hex_int_ll.o(.text) refers to _printf_hex_int_ll.o(.constdata) for .constdata
    _printf_hex_ptr.o(.text) refers to _printf_intcommon.o(.text) for _printf_int_common
    _printf_hex_ptr.o(.text) refers to _printf_hex_ptr.o(.constdata) for .constdata
    _printf_hex_int_ptr.o(.text) refers to _printf_intcommon.o(.text) for _printf_int_common
    _printf_hex_int_ptr.o(.text) refers (Weak) to _printf_truncate.o(.text) for _printf_truncate_unsigned
    _printf_hex_int_ptr.o(.text) refers to _printf_hex_int_ptr.o(.constdata) for .constdata
    _printf_hex_ll_ptr.o(.text) refers to _printf_intcommon.o(.text) for _printf_int_common
    _printf_hex_ll_ptr.o(.text) refers to _printf_hex_ll_ptr.o(.constdata) for .constdata
    _printf_hex_int_ll_ptr.o(.text) refers to _printf_intcommon.o(.text) for _printf_int_common
    _printf_hex_int_ll_ptr.o(.text) refers (Weak) to _printf_truncate.o(.text) for _printf_truncate_unsigned
    _printf_hex_int_ll_ptr.o(.text) refers to _printf_hex_int_ll_ptr.o(.constdata) for .constdata
    __printf_flags.o(.text) refers to _printf_percent.o(.ARM.Collect$$_printf_percent$$00000000) for _printf_percent
    __printf_flags.o(.text) refers to __printf_flags.o(.constdata) for .constdata
    __printf_ss.o(.text) refers to _printf_percent.o(.ARM.Collect$$_printf_percent$$00000000) for _printf_percent
    __printf_flags_ss.o(.text) refers to _printf_percent.o(.ARM.Collect$$_printf_percent$$00000000) for _printf_percent
    __printf_flags_ss.o(.text) refers to __printf_flags_ss.o(.constdata) for .constdata
    __printf_wp.o(.text) refers to __printf_wp.o(i._is_digit) for _is_digit
    __printf_wp.o(.text) refers to _printf_percent.o(.ARM.Collect$$_printf_percent$$00000000) for _printf_percent
    __printf_flags_wp.o(.text) refers to __printf_wp.o(i._is_digit) for _is_digit
    __printf_flags_wp.o(.text) refers to _printf_percent.o(.ARM.Collect$$_printf_percent$$00000000) for _printf_percent
    __printf_flags_wp.o(.text) refers to __printf_flags_wp.o(.constdata) for .constdata
    __printf_ss_wp.o(.text) refers to __printf_wp.o(i._is_digit) for _is_digit
    __printf_ss_wp.o(.text) refers to _printf_percent.o(.ARM.Collect$$_printf_percent$$00000000) for _printf_percent
    __printf_flags_ss_wp.o(.text) refers to __printf_wp.o(i._is_digit) for _is_digit
    __printf_flags_ss_wp.o(.text) refers to _printf_percent.o(.ARM.Collect$$_printf_percent$$00000000) for _printf_percent
    __printf_flags_ss_wp.o(.text) refers to __printf_flags_ss_wp.o(.constdata) for .constdata
    _printf_s.o(.ARM.Collect$$_printf_percent$$00000014) refers (Weak) to _printf_char.o(.text) for _printf_string
    _printf_n.o(.ARM.Collect$$_printf_percent$$00000001) refers (Weak) to _printf_charcount.o(.text) for _printf_charcount
    _printf_x.o(.ARM.Collect$$_printf_percent$$0000000C) refers (Weak) to _printf_hex_int_ll_ptr.o(.text) for _printf_int_hex
    _printf_p.o(.ARM.Collect$$_printf_percent$$00000002) refers (Weak) to _printf_hex_int_ll_ptr.o(.text) for _printf_hex_ptr
    _printf_d.o(.ARM.Collect$$_printf_percent$$00000009) refers (Weak) to _printf_dec.o(.text) for _printf_int_dec
    _printf_f.o(.ARM.Collect$$_printf_percent$$00000003) refers (Weak) to printf1.o(x$fpl$printf1) for _printf_fp_dec
    _printf_e.o(.ARM.Collect$$_printf_percent$$00000004) refers (Weak) to printf1.o(x$fpl$printf1) for _printf_fp_dec
    _printf_percent.o(.ARM.Collect$$_printf_percent$$00000000) refers (Special) to _printf_percent_end.o(.ARM.Collect$$_printf_percent$$00000017) for _printf_percent_end
    __0sscanf.o(.text) refers to scanf_char.o(.text) for __vfscanf_char
    __0sscanf.o(.text) refers to _sgetc.o(.text) for _sgetc
    _scanf_int.o(.text) refers to _chval.o(.text) for _chval
    atoi.o(.text) refers to rt_errno_addr_intlibspace.o(.text) for __aeabi_errno_addr
    atoi.o(.text) refers to strtol.o(.text) for strtol
    atol.o(.text) refers to rt_errno_addr_intlibspace.o(.text) for __aeabi_errno_addr
    atol.o(.text) refers to strtol.o(.text) for strtol
    strtol.o(.text) refers to rt_ctype_table.o(.text) for __rt_ctype_table
    strtol.o(.text) refers to _strtoul.o(.text) for _strtoul
    strtol.o(.text) refers to rt_errno_addr_intlibspace.o(.text) for __aeabi_errno_addr
    fread.o(.text) refers to fgetc.o(i.fgetc) for fgetc
    fwrite.o(.text) refers to fputc.o(i.fputc) for fputc
    fopen.o(.text) refers to fclose.o(.text) for _fclose_internal
    fopen.o(.text) refers to sys_io.o(.text) for _sys_open
    fopen.o(.text) refers to fseek.o(.text) for _fseek
    fopen.o(.text) refers to h1_alloc.o(.text) for malloc
    fopen.o(.text) refers to rt_memclr_w.o(.text) for __aeabi_memclr4
    fopen.o(.text) refers to stdio_streams.o(.bss) for __stdin
    stdio_streams.o(.bss) refers (Special) to initio.o(.text) for _initio
    stdio_streams.o(.bss) refers (Special) to initio.o(.text) for _initio
    stdio_streams.o(.bss) refers (Special) to initio.o(.text) for _initio
    stdio_streams.o(.data) refers (Special) to initio.o(.text) for _initio
    stdio_streams.o(.data) refers (Special) to initio.o(.text) for _initio
    stdio_streams.o(.data) refers (Special) to initio.o(.text) for _initio
    fclose.o(.text) refers to stdio.o(.text) for _fflush
    fclose.o(.text) refers to sys_io.o(.text) for _sys_close
    fclose.o(.text) refers to h1_free.o(.text) for free
    fclose.o(.text) refers to rt_memclr_w.o(.text) for __aeabi_memclr4
    fclose_locked.o(.text) refers to fclose.o(.text) for _fclose_internal
    fclose_locked.o(.text) refers to streamlock.o(.data) for _stream_list_lock
    fopen_locked.o(.text) refers to fclose.o(.text) for _fclose_internal
    fopen_locked.o(.text) refers to sys_io.o(.text) for _sys_open
    fopen_locked.o(.text) refers to fseek.o(.text) for _fseek
    fopen_locked.o(.text) refers to h1_alloc.o(.text) for malloc
    fopen_locked.o(.text) refers to rt_memclr_w.o(.text) for __aeabi_memclr4
    fopen_locked.o(.text) refers to streamlock.o(.data) for _stream_list_lock
    fopen_locked.o(.text) refers to stdio_streams.o(.bss) for __stdin
    strtok_r.o(.text) refers to strtok_int.o(.text) for __strtok_internal
    strncasecmp.o(.text) refers to tolower.o(.text) for tolower
    rt_memcpy_v6.o(.text) refers to rt_memcpy_w.o(.text) for __aeabi_memcpy4
    aeabi_memset.o(.text) refers to rt_memclr.o(.text) for _memset
    rt_memclr.o(.text) refers to rt_memclr_w.o(.text) for _memset_w
    strncpy.o(.text) refers to rt_memclr.o(.text) for __aeabi_memclr
    mktime.o(.text) refers to _monlen.o(.constdata) for _monlen
    strftime.o(.text) refers (Special) to lc_time_c.o(locale$$code) for _get_lc_time
    strftime.o(.text) refers to rt_locale_intlibspace.o(.text) for __rt_locale
    strftime.o(.text) refers to sprintf.o(.text) for sprintf
    localtime_internal.o(.text) refers to rt_memclr_w.o(.text) for __aeabi_memclr4
    localtime_internal.o(.text) refers to _monlen.o(.constdata) for _monlen
    __main.o(!!!main) refers to rtentry.o(.ARM.Collect$$rtentry$$00000000) for __rt_entry
    daddsub_clz.o(x$fpl$dadd) refers (Special) to usenofp.o(x$fpl$usenofp) for __I$use$fp
    daddsub_clz.o(x$fpl$dadd) refers to daddsub_clz.o(x$fpl$dsub) for _dsub1
    daddsub_clz.o(x$fpl$dadd) refers to dretinf.o(x$fpl$dretinf) for __fpl_dretinf
    daddsub_clz.o(x$fpl$dadd) refers to dnaninf.o(x$fpl$dnaninf) for __fpl_dnaninf
    daddsub_clz.o(x$fpl$drsb) refers (Special) to usenofp.o(x$fpl$usenofp) for __I$use$fp
    daddsub_clz.o(x$fpl$drsb) refers to daddsub_clz.o(x$fpl$dadd) for _dadd1
    daddsub_clz.o(x$fpl$drsb) refers to daddsub_clz.o(x$fpl$dsub) for _dsub1
    daddsub_clz.o(x$fpl$dsub) refers (Special) to usenofp.o(x$fpl$usenofp) for __I$use$fp
    daddsub_clz.o(x$fpl$dsub) refers to daddsub_clz.o(x$fpl$dadd) for _dadd1
    daddsub_clz.o(x$fpl$dsub) refers to dnaninf.o(x$fpl$dnaninf) for __fpl_dnaninf
    dfix.o(x$fpl$dfix) refers (Special) to usenofp.o(x$fpl$usenofp) for __I$use$fp
    dfix.o(x$fpl$dfix) refers to dnaninf.o(x$fpl$dnaninf) for __fpl_dnaninf
    dfix.o(x$fpl$dfixr) refers (Special) to usenofp.o(x$fpl$usenofp) for __I$use$fp
    dfix.o(x$fpl$dfixr) refers to dnaninf.o(x$fpl$dnaninf) for __fpl_dnaninf
    dflt_clz.o(x$fpl$dfltu) refers (Special) to usenofp.o(x$fpl$usenofp) for __I$use$fp
    dflt_clz.o(x$fpl$dflt) refers (Special) to usenofp.o(x$fpl$usenofp) for __I$use$fp
    dflt_clz.o(x$fpl$dfltn) refers (Special) to usenofp.o(x$fpl$usenofp) for __I$use$fp
    dleqf.o(x$fpl$dleqf) refers (Special) to usenofp.o(x$fpl$usenofp) for __I$use$fp
    dleqf.o(x$fpl$dleqf) refers to dnaninf.o(x$fpl$dnaninf) for __fpl_dnaninf
    dleqf.o(x$fpl$dleqf) refers to dcmpi.o(x$fpl$dcmpinf) for __fpl_dcmp_Inf
    dmul.o(x$fpl$dmul) refers (Special) to usenofp.o(x$fpl$usenofp) for __I$use$fp
    dmul.o(x$fpl$dmul) refers to dretinf.o(x$fpl$dretinf) for __fpl_dretinf
    dmul.o(x$fpl$dmul) refers to dnaninf.o(x$fpl$dnaninf) for __fpl_dnaninf
    drleqf.o(x$fpl$drleqf) refers (Special) to usenofp.o(x$fpl$usenofp) for __I$use$fp
    drleqf.o(x$fpl$drleqf) refers to dleqf.o(x$fpl$dleqf) for __fpl_dcmple_InfNaN
    f2d.o(x$fpl$f2d) refers (Special) to usenofp.o(x$fpl$usenofp) for __I$use$fp
    f2d.o(x$fpl$f2d) refers to fnaninf.o(x$fpl$fnaninf) for __fpl_fnaninf
    f2d.o(x$fpl$f2d) refers to dretinf.o(x$fpl$dretinf) for __fpl_dretinf
    printf1.o(x$fpl$printf1) refers to _printf_fp_dec.o(.text) for _printf_fp_dec_real
    floor.o(i.__softfp_floor) refers (Special) to usenofp.o(x$fpl$usenofp) for __I$use$fp
    floor.o(i.__softfp_floor) refers to floor.o(i.floor) for floor
    floor.o(i.floor) refers (Special) to usenofp.o(x$fpl$usenofp) for __I$use$fp
    floor.o(i.floor) refers to daddsub_clz.o(x$fpl$dadd) for __aeabi_dadd
    floor.o(i.floor) refers to drleqf.o(x$fpl$drleqf) for __aeabi_cdrcmple
    floor.o(i.floor) refers to daddsub_clz.o(x$fpl$drsb) for __aeabi_drsub
    pow.o(i.__softfp_pow) refers (Special) to usenofp.o(x$fpl$usenofp) for __I$use$fp
    pow.o(i.__softfp_pow) refers to pow.o(i.pow) for pow
    pow.o(i.pow) refers (Special) to usenofp.o(x$fpl$usenofp) for __I$use$fp
    pow.o(i.pow) refers to daddsub_clz.o(x$fpl$dadd) for __aeabi_dadd
    pow.o(i.pow) refers to _rserrno.o(.text) for __set_errno
    pow.o(i.pow) refers to ddiv.o(x$fpl$ddiv) for __aeabi_ddiv
    pow.o(i.pow) refers to scalbn.o(x$fpl$scalbn) for __ARM_scalbn
    pow.o(i.pow) refers to sqrt.o(i.sqrt) for sqrt
    pow.o(i.pow) refers to dmul.o(x$fpl$dmul) for __aeabi_dmul
    pow.o(i.pow) refers to dunder.o(i.__mathlib_dbl_underflow) for __mathlib_dbl_underflow
    pow.o(i.pow) refers to daddsub_clz.o(x$fpl$dsub) for __aeabi_dsub
    pow.o(i.pow) refers to daddsub_clz.o(x$fpl$drsb) for __aeabi_drsub
    pow.o(i.pow) refers to qnan.o(.constdata) for __mathlib_zero
    pow.o(i.pow) refers to poly.o(i.__kernel_poly) for __kernel_poly
    pow.o(i.pow) refers to dflt_clz.o(x$fpl$dflt) for __aeabi_i2d
    pow.o(i.pow) refers to drleqf.o(x$fpl$drleqf) for __aeabi_cdrcmple
    pow.o(i.pow) refers to pow.o(.constdata) for .constdata
    pow.o(i.pow) refers to fpclassify.o(i.__ARM_fpclassify) for __ARM_fpclassify
    pow.o(.constdata) refers (Special) to usenofp.o(x$fpl$usenofp) for __I$use$fp
    pow_x.o(i.____softfp_pow$lsc) refers (Special) to usenofp.o(x$fpl$usenofp) for __I$use$fp
    pow_x.o(i.____softfp_pow$lsc) refers to pow_x.o(i.__pow$lsc) for __pow$lsc
    pow_x.o(i.__pow$lsc) refers (Special) to usenofp.o(x$fpl$usenofp) for __I$use$fp
    pow_x.o(i.__pow$lsc) refers to daddsub_clz.o(x$fpl$dadd) for __aeabi_dadd
    pow_x.o(i.__pow$lsc) refers to _rserrno.o(.text) for __set_errno
    pow_x.o(i.__pow$lsc) refers to ddiv.o(x$fpl$ddiv) for __aeabi_ddiv
    pow_x.o(i.__pow$lsc) refers to sqrt.o(i.sqrt) for sqrt
    pow_x.o(i.__pow$lsc) refers to dmul.o(x$fpl$dmul) for __aeabi_dmul
    pow_x.o(i.__pow$lsc) refers to dflt_clz.o(x$fpl$dflt) for __aeabi_i2d
    pow_x.o(i.__pow$lsc) refers to daddsub_clz.o(x$fpl$dsub) for __aeabi_dsub
    pow_x.o(i.__pow$lsc) refers to scalbn.o(x$fpl$scalbn) for __ARM_scalbn
    pow_x.o(i.__pow$lsc) refers to daddsub_clz.o(x$fpl$drsb) for __aeabi_drsub
    pow_x.o(i.__pow$lsc) refers to qnan.o(.constdata) for __mathlib_zero
    pow_x.o(i.__pow$lsc) refers to pow_x.o(.constdata) for .constdata
    pow_x.o(i.__pow$lsc) refers to poly.o(i.__kernel_poly) for __kernel_poly
    pow_x.o(i.__pow$lsc) refers to drleqf.o(x$fpl$drleqf) for __aeabi_cdrcmple
    pow_x.o(.constdata) refers (Special) to usenofp.o(x$fpl$usenofp) for __I$use$fp
    sys_io.o(.text) refers (Special) to use_no_semi.o(.text) for __I$use$semihosting
    sys_io.o(.text) refers (Special) to indicate_semi.o(.text) for __semihosting_library_function
    sys_io.o(.text) refers to strlen.o(.text) for strlen
    sys_io.o(.constdata) refers (Special) to use_no_semi.o(.text) for __I$use$semihosting
    sys_io.o(.constdata) refers (Special) to indicate_semi.o(.text) for __semihosting_library_function
    sys_io.o(.constdata) refers (Special) to use_no_semi.o(.text) for __I$use$semihosting
    sys_io.o(.constdata) refers (Special) to indicate_semi.o(.text) for __semihosting_library_function
    sys_io.o(.constdata) refers (Special) to use_no_semi.o(.text) for __I$use$semihosting
    sys_io.o(.constdata) refers (Special) to indicate_semi.o(.text) for __semihosting_library_function
    rtentry.o(.ARM.Collect$$rtentry$$00000000) refers (Special) to rtentry2.o(.ARM.Collect$$rtentry$$0000000A) for __rt_entry_li
    rtentry.o(.ARM.Collect$$rtentry$$00000000) refers (Special) to rtentry2.o(.ARM.Collect$$rtentry$$0000000D) for __rt_entry_main
    rtentry.o(.ARM.Collect$$rtentry$$00000000) refers (Special) to rtentry2.o(.ARM.Collect$$rtentry$$0000000C) for __rt_entry_postli_1
    rtentry.o(.ARM.Collect$$rtentry$$00000000) refers (Special) to rtentry2.o(.ARM.Collect$$rtentry$$00000009) for __rt_entry_postsh_1
    rtentry.o(.ARM.Collect$$rtentry$$00000000) refers (Special) to rtentry2.o(.ARM.Collect$$rtentry$$00000002) for __rt_entry_presh_1
    rtentry.o(.ARM.Collect$$rtentry$$00000000) refers (Special) to rtentry4.o(.ARM.Collect$$rtentry$$00000004) for __rt_entry_sh
    rt_ctype_table.o(.text) refers to rt_locale_intlibspace.o(.text) for __rt_locale
    rt_ctype_table.o(.text) refers to lc_ctype_c.o(locale$$code) for _get_lc_ctype
    rt_heap_descriptor.o(.text) refers to rt_heap_descriptor.o(.bss) for __rt_heap_descriptor_data
    rt_heap_descriptor_intlibspace.o(.text) refers to libspace.o(.bss) for __libspace_start
    rt_locale.o(.text) refers to rt_locale.o(.bss) for __rt_locale_data
    rt_locale_intlibspace.o(.text) refers to libspace.o(.bss) for __libspace_start
    rt_errno_addr.o(.text) refers to rt_errno_addr.o(.bss) for __aeabi_errno_addr_data
    rt_errno_addr_intlibspace.o(.text) refers to libspace.o(.bss) for __libspace_start
    init_alloc.o(.text) refers (Special) to hguard.o(.text) for __heap$guard
    init_alloc.o(.text) refers (Special) to libinit2.o(.ARM.Collect$$libinit$$00000001) for __rt_lib_init_heap_2
    init_alloc.o(.text) refers (Special) to maybetermalloc1.o(.emb_text) for _maybe_terminate_alloc
    init_alloc.o(.text) refers to h1_extend.o(.text) for __Heap_ProvideMemory
    init_alloc.o(.text) refers to defsig_rtmem_outer.o(.text) for __rt_SIGRTMEM
    init_alloc.o(.text) refers to rt_heap_descriptor_intlibspace.o(.text) for __rt_heap_descriptor
    init_alloc.o(.text) refers to h1_init.o(.text) for __Heap_Initialize
    h1_init_mt.o(.text) refers to mutex_dummy.o(.text) for _mutex_initialize
    _rserrno.o(.text) refers to rt_errno_addr_intlibspace.o(.text) for __aeabi_errno_addr
    sprintf.o(.text) refers (Special) to _printf_a.o(.ARM.Collect$$_printf_percent$$00000006) for _printf_a
    sprintf.o(.text) refers (Special) to _printf_c.o(.ARM.Collect$$_printf_percent$$00000013) for _printf_c
    sprintf.o(.text) refers (Special) to _printf_charcount.o(.text) for _printf_charcount
    sprintf.o(.text) refers (Special) to _printf_d.o(.ARM.Collect$$_printf_percent$$00000009) for _printf_d
    sprintf.o(.text) refers (Special) to _printf_e.o(.ARM.Collect$$_printf_percent$$00000004) for _printf_e
    sprintf.o(.text) refers (Special) to _printf_f.o(.ARM.Collect$$_printf_percent$$00000003) for _printf_f
    sprintf.o(.text) refers (Special) to printf1.o(x$fpl$printf1) for _printf_fp_dec
    sprintf.o(.text) refers (Special) to printf2.o(x$fpl$printf2) for _printf_fp_hex
    sprintf.o(.text) refers (Special) to _printf_g.o(.ARM.Collect$$_printf_percent$$00000005) for _printf_g
    sprintf.o(.text) refers (Special) to _printf_i.o(.ARM.Collect$$_printf_percent$$00000008) for _printf_i
    sprintf.o(.text) refers (Special) to _printf_dec.o(.text) for _printf_int_dec
    sprintf.o(.text) refers (Special) to _printf_l.o(.ARM.Collect$$_printf_percent$$00000012) for _printf_l
    sprintf.o(.text) refers (Special) to _printf_lc.o(.ARM.Collect$$_printf_percent$$00000015) for _printf_lc
    sprintf.o(.text) refers (Special) to _printf_ll.o(.ARM.Collect$$_printf_percent$$00000007) for _printf_ll
    sprintf.o(.text) refers (Special) to _printf_lld.o(.ARM.Collect$$_printf_percent$$0000000E) for _printf_lld
    sprintf.o(.text) refers (Special) to _printf_lli.o(.ARM.Collect$$_printf_percent$$0000000D) for _printf_lli
    sprintf.o(.text) refers (Special) to _printf_llo.o(.ARM.Collect$$_printf_percent$$00000010) for _printf_llo
    sprintf.o(.text) refers (Special) to _printf_llu.o(.ARM.Collect$$_printf_percent$$0000000F) for _printf_llu
    sprintf.o(.text) refers (Special) to _printf_llx.o(.ARM.Collect$$_printf_percent$$00000011) for _printf_llx
    sprintf.o(.text) refers (Special) to _printf_longlong_dec.o(.text) for _printf_longlong_dec
    sprintf.o(.text) refers (Special) to _printf_hex_int_ll_ptr.o(.text) for _printf_longlong_hex
    sprintf.o(.text) refers (Special) to _printf_oct_int_ll.o(.text) for _printf_longlong_oct
    sprintf.o(.text) refers (Special) to _printf_ls.o(.ARM.Collect$$_printf_percent$$00000016) for _printf_ls
    sprintf.o(.text) refers (Special) to _printf_n.o(.ARM.Collect$$_printf_percent$$00000001) for _printf_n
    sprintf.o(.text) refers (Special) to _printf_o.o(.ARM.Collect$$_printf_percent$$0000000B) for _printf_o
    sprintf.o(.text) refers (Special) to _printf_p.o(.ARM.Collect$$_printf_percent$$00000002) for _printf_p
    sprintf.o(.text) refers (Special) to _printf_percent.o(.ARM.Collect$$_printf_percent$$00000000) for _printf_percent
    sprintf.o(.text) refers (Special) to _printf_pad.o(.text) for _printf_post_padding
    sprintf.o(.text) refers (Special) to _printf_s.o(.ARM.Collect$$_printf_percent$$00000014) for _printf_s
    sprintf.o(.text) refers (Special) to _printf_str.o(.text) for _printf_str
    sprintf.o(.text) refers (Special) to _printf_truncate.o(.text) for _printf_truncate_signed
    sprintf.o(.text) refers (Special) to _printf_u.o(.ARM.Collect$$_printf_percent$$0000000A) for _printf_u
    sprintf.o(.text) refers (Special) to _printf_wctomb.o(.text) for _printf_wctomb
    sprintf.o(.text) refers (Special) to _printf_x.o(.ARM.Collect$$_printf_percent$$0000000C) for _printf_x
    sprintf.o(.text) refers to _printf_char_common.o(.text) for _printf_char_common
    sprintf.o(.text) refers to _sputc.o(.text) for _sputc
    _printf_intcommon.o(.text) refers (Weak) to _printf_pad.o(.text) for _printf_pre_padding
    _printf_intcommon.o(.text) refers (Weak) to _printf_pad.o(.text) for _printf_pre_padding
    _printf_intcommon.o(.text) refers (Weak) to _printf_pad.o(.text) for _printf_post_padding
    _printf_fp_dec.o(.text) refers (Special) to usenofp.o(x$fpl$usenofp) for __I$use$fp
    _printf_fp_dec.o(.text) refers (Special) to lc_numeric_c.o(locale$$code) for _get_lc_numeric
    _printf_fp_dec.o(.text) refers to bigflt0.o(.text) for _btod_etento
    _printf_fp_dec.o(.text) refers to btod.o(CL$$btod_d2e) for _btod_d2e
    _printf_fp_dec.o(.text) refers to btod.o(CL$$btod_ediv) for _btod_ediv
    _printf_fp_dec.o(.text) refers to btod.o(CL$$btod_emul) for _btod_emul
    _printf_fp_dec.o(.text) refers to lludiv10.o(.text) for _ll_udiv10
    _printf_fp_dec.o(.text) refers to fpclassify.o(i.__ARM_fpclassify) for __ARM_fpclassify
    _printf_fp_dec.o(.text) refers to _printf_fp_infnan.o(.text) for _printf_fp_infnan
    _printf_fp_dec.o(.text) refers (Weak) to _printf_pad.o(.text) for _printf_pre_padding
    _printf_fp_dec.o(.text) refers (Weak) to _printf_pad.o(.text) for _printf_pre_padding
    _printf_fp_dec.o(.text) refers to rt_locale_intlibspace.o(.text) for __rt_locale
    _printf_fp_dec.o(.text) refers (Weak) to _printf_pad.o(.text) for _printf_post_padding
    _printf_char_common.o(.text) refers to __printf_flags_ss_wp.o(.text) for __printf
    _printf_char.o(.text) refers (Weak) to _printf_str.o(.text) for _printf_str
    _printf_char_file.o(.text) refers to _printf_char_common.o(.text) for _printf_char_common
    _printf_char_file.o(.text) refers to ferror.o(.text) for ferror
    _printf_char_file.o(.text) refers to fputc.o(i.fputc) for fputc
    _printf_wctomb.o(.text) refers (Special) to _printf_wchar.o(.text) for _printf_lcs_common
    _printf_wctomb.o(.text) refers to _wcrtomb.o(.text) for _wcrtomb
    _printf_wctomb.o(.text) refers (Weak) to _printf_pad.o(.text) for _printf_pre_padding
    _printf_wctomb.o(.text) refers (Weak) to _printf_pad.o(.text) for _printf_post_padding
    _printf_wctomb.o(.text) refers to _printf_wctomb.o(.constdata) for .constdata
    _printf_wctomb.o(.constdata) refers (Special) to _printf_wchar.o(.text) for _printf_lcs_common
    _printf_longlong_dec.o(.text) refers to lludiv10.o(.text) for _ll_udiv10
    _printf_longlong_dec.o(.text) refers to _printf_intcommon.o(.text) for _printf_int_common
    _printf_oct_ll.o(.text) refers to _printf_intcommon.o(.text) for _printf_int_common
    _printf_oct_int.o(.text) refers (Weak) to _printf_truncate.o(.text) for _printf_truncate_unsigned
    _printf_oct_int.o(.text) refers to _printf_intcommon.o(.text) for _printf_int_common
    _printf_oct_int_ll.o(.text) refers to _printf_intcommon.o(.text) for _printf_int_common
    _printf_oct_int_ll.o(.text) refers (Weak) to _printf_truncate.o(.text) for _printf_truncate_unsigned
    _printf_c.o(.ARM.Collect$$_printf_percent$$00000013) refers (Weak) to _printf_char.o(.text) for _printf_char
    _printf_o.o(.ARM.Collect$$_printf_percent$$0000000B) refers (Weak) to _printf_oct_int_ll.o(.text) for _printf_int_oct
    _printf_i.o(.ARM.Collect$$_printf_percent$$00000008) refers (Weak) to _printf_dec.o(.text) for _printf_int_dec
    _printf_u.o(.ARM.Collect$$_printf_percent$$0000000A) refers (Weak) to _printf_dec.o(.text) for _printf_int_dec
    _printf_g.o(.ARM.Collect$$_printf_percent$$00000005) refers (Weak) to printf1.o(x$fpl$printf1) for _printf_fp_dec
    _printf_a.o(.ARM.Collect$$_printf_percent$$00000006) refers (Weak) to printf2.o(x$fpl$printf2) for _printf_fp_hex
    _printf_lli.o(.ARM.Collect$$_printf_percent$$0000000D) refers (Special) to _printf_ll.o(.ARM.Collect$$_printf_percent$$00000007) for _printf_ll
    _printf_lli.o(.ARM.Collect$$_printf_percent$$0000000D) refers (Weak) to _printf_longlong_dec.o(.text) for _printf_longlong_dec
    _printf_lld.o(.ARM.Collect$$_printf_percent$$0000000E) refers (Special) to _printf_ll.o(.ARM.Collect$$_printf_percent$$00000007) for _printf_ll
    _printf_lld.o(.ARM.Collect$$_printf_percent$$0000000E) refers (Weak) to _printf_longlong_dec.o(.text) for _printf_longlong_dec
    _printf_llu.o(.ARM.Collect$$_printf_percent$$0000000F) refers (Special) to _printf_ll.o(.ARM.Collect$$_printf_percent$$00000007) for _printf_ll
    _printf_llu.o(.ARM.Collect$$_printf_percent$$0000000F) refers (Weak) to _printf_longlong_dec.o(.text) for _printf_longlong_dec
    _printf_lc.o(.ARM.Collect$$_printf_percent$$00000015) refers (Special) to _printf_l.o(.ARM.Collect$$_printf_percent$$00000012) for _printf_l
    _printf_lc.o(.ARM.Collect$$_printf_percent$$00000015) refers (Weak) to _printf_wchar.o(.text) for _printf_wchar
    _printf_ls.o(.ARM.Collect$$_printf_percent$$00000016) refers (Special) to _printf_l.o(.ARM.Collect$$_printf_percent$$00000012) for _printf_l
    _printf_ls.o(.ARM.Collect$$_printf_percent$$00000016) refers (Weak) to _printf_wchar.o(.text) for _printf_wstring
    _printf_llo.o(.ARM.Collect$$_printf_percent$$00000010) refers (Special) to _printf_ll.o(.ARM.Collect$$_printf_percent$$00000007) for _printf_ll
    _printf_llo.o(.ARM.Collect$$_printf_percent$$00000010) refers (Weak) to _printf_oct_int_ll.o(.text) for _printf_ll_oct
    _printf_llx.o(.ARM.Collect$$_printf_percent$$00000011) refers (Special) to _printf_ll.o(.ARM.Collect$$_printf_percent$$00000007) for _printf_ll
    _printf_llx.o(.ARM.Collect$$_printf_percent$$00000011) refers (Weak) to _printf_hex_int_ll_ptr.o(.text) for _printf_ll_hex
    scanf_char.o(.text) refers to _scanf.o(.text) for __vfscanf
    scanf_char.o(.text) refers to isspace.o(.text) for isspace
    _strtoul.o(.text) refers to _chval.o(.text) for _chval
    _strtoul.o(.text) refers to rt_errno_addr_intlibspace.o(.text) for __aeabi_errno_addr
    fgetc.o(i.fgetc) refers to filbuf.o(.text) for __filbuf_byte
    fputc.o(i.fputc) refers to flsbuf.o(.text) for __flsbuf_byte
    fseek.o(.text) refers to sys_io.o(.text) for _sys_istty
    fseek.o(.text) refers to ftell.o(.text) for _ftell_internal
    fseek.o(.text) refers to stdio.o(.text) for _seterr
    stdio.o(.text) refers to sys_io.o(.text) for _sys_seek
    streamlock.o(.data) refers (Special) to initio.o(.text) for _initio
    initio.o(.text) refers (Special) to libinit2.o(.ARM.Collect$$libinit$$00000020) for __rt_lib_init_stdio_2
    initio.o(.text) refers (Special) to libshutdown2.o(.ARM.Collect$$libshutdown$$00000002) for __rt_lib_shutdown_stdio_2
    initio.o(.text) refers to rt_memclr_w.o(.text) for __aeabi_memclr4
    initio.o(.text) refers to fopen.o(.text) for freopen
    initio.o(.text) refers to defsig_rtred_outer.o(.text) for __rt_SIGRTRED
    initio.o(.text) refers to setvbuf.o(.text) for setvbuf
    initio.o(.text) refers to fclose.o(.text) for _fclose_internal
    initio.o(.text) refers to h1_free.o(.text) for free
    initio.o(.text) refers to stdio_streams.o(.bss) for __stdin
    initio.o(.text) refers to stdio_streams.o(.bss) for __stdout
    initio.o(.text) refers to stdio_streams.o(.bss) for __stderr
    initio.o(.text) refers to stdio_streams.o(.data) for __aeabi_stdin
    initio.o(.text) refers to stdio_streams.o(.data) for __aeabi_stdout
    initio.o(.text) refers to stdio_streams.o(.data) for __aeabi_stderr
    initio.o(.text) refers to sys_io.o(.constdata) for __stdin_name
    initio.o(.text) refers to sys_io.o(.constdata) for __stdout_name
    initio.o(.text) refers to sys_io.o(.constdata) for __stderr_name
    initio_locked.o(.text) refers (Special) to libinit2.o(.ARM.Collect$$libinit$$00000020) for __rt_lib_init_stdio_2
    initio_locked.o(.text) refers (Special) to libshutdown2.o(.ARM.Collect$$libshutdown$$00000002) for __rt_lib_shutdown_stdio_2
    initio_locked.o(.text) refers to rt_memclr_w.o(.text) for __aeabi_memclr4
    initio_locked.o(.text) refers to fopen.o(.text) for freopen
    initio_locked.o(.text) refers to defsig_rtred_outer.o(.text) for __rt_SIGRTRED
    initio_locked.o(.text) refers to setvbuf.o(.text) for setvbuf
    initio_locked.o(.text) refers to fclose.o(.text) for _fclose_internal
    initio_locked.o(.text) refers to h1_free.o(.text) for free
    initio_locked.o(.text) refers to stdio_streams.o(.bss) for __stdin
    initio_locked.o(.text) refers to stdio_streams.o(.bss) for __stdout
    initio_locked.o(.text) refers to stdio_streams.o(.bss) for __stderr
    initio_locked.o(.text) refers to stdio_streams.o(.data) for __aeabi_stdin
    initio_locked.o(.text) refers to stdio_streams.o(.data) for __aeabi_stdout
    initio_locked.o(.text) refers to stdio_streams.o(.data) for __aeabi_stderr
    initio_locked.o(.text) refers to streamlock.o(.data) for _stream_list_lock
    initio_locked.o(.text) refers to sys_io.o(.constdata) for __stdin_name
    initio_locked.o(.text) refers to sys_io.o(.constdata) for __stdout_name
    initio_locked.o(.text) refers to sys_io.o(.constdata) for __stderr_name
    lc_time_c.o(locale$$data) refers (Special) to libinit2.o(.ARM.Collect$$libinit$$00000014) for __rt_lib_init_lc_time_2
    lc_time_c.o(locale$$code) refers (Special) to libinit2.o(.ARM.Collect$$libinit$$00000014) for __rt_lib_init_lc_time_2
    lc_time_c.o(locale$$code) refers to shell.o(.text) for strcmp
    lc_time_c.o(locale$$code) refers to lc_time_c.o(locale$$data) for __lctime_c_name
    strtok_int.o(.text) refers to strspn.o(.text) for strspn
    strtok_int.o(.text) refers to strcspn.o(.text) for strcspn
    _get_argv.o(.text) refers (Special) to hrguard.o(.text) for __heap_region$guard
    _get_argv.o(.text) refers to h1_alloc.o(.text) for malloc
    _get_argv.o(.text) refers to defsig_rtmem_outer.o(.text) for __rt_SIGRTMEM
    _get_argv.o(.text) refers to sys_command.o(.text) for _sys_command_string
    libinit2.o(.ARM.Collect$$libinit$$00000001) refers (Weak) to init_alloc.o(.text) for _init_alloc
    libinit2.o(.ARM.Collect$$libinit$$0000000B) refers (Weak) to rt_locale_intlibspace.o(.text) for __rt_locale
    libinit2.o(.ARM.Collect$$libinit$$0000000C) refers to libinit2.o(.ARM.Collect$$libinit$$0000000B) for .ARM.Collect$$libinit$$0000000B
    libinit2.o(.ARM.Collect$$libinit$$0000000E) refers to libinit2.o(.ARM.Collect$$libinit$$0000000B) for .ARM.Collect$$libinit$$0000000B
    libinit2.o(.ARM.Collect$$libinit$$0000000E) refers (Weak) to lc_ctype_c.o(locale$$code) for _get_lc_ctype
    libinit2.o(.ARM.Collect$$libinit$$00000010) refers to libinit2.o(.ARM.Collect$$libinit$$0000000B) for .ARM.Collect$$libinit$$0000000B
    libinit2.o(.ARM.Collect$$libinit$$00000012) refers to libinit2.o(.ARM.Collect$$libinit$$0000000B) for .ARM.Collect$$libinit$$0000000B
    libinit2.o(.ARM.Collect$$libinit$$00000012) refers (Weak) to lc_numeric_c.o(locale$$code) for _get_lc_numeric
    libinit2.o(.ARM.Collect$$libinit$$00000014) refers to libinit2.o(.ARM.Collect$$libinit$$0000000B) for .ARM.Collect$$libinit$$0000000B
    libinit2.o(.ARM.Collect$$libinit$$00000014) refers (Weak) to lc_time_c.o(locale$$code) for _get_lc_time
    libinit2.o(.ARM.Collect$$libinit$$00000020) refers (Weak) to initio.o(.text) for _initio
    libinit2.o(.ARM.Collect$$libinit$$00000022) refers to argv_veneer.o(.emb_text) for __ARM_argv_veneer
    libinit2.o(.ARM.Collect$$libinit$$00000023) refers to argv_veneer.o(.emb_text) for __ARM_argv_veneer
    dcmpi.o(x$fpl$dcmpinf) refers (Special) to usenofp.o(x$fpl$usenofp) for __I$use$fp
    ddiv.o(x$fpl$drdiv) refers (Special) to usenofp.o(x$fpl$usenofp) for __I$use$fp
    ddiv.o(x$fpl$drdiv) refers to ddiv.o(x$fpl$ddiv) for ddiv_entry
    ddiv.o(x$fpl$ddiv) refers (Special) to usenofp.o(x$fpl$usenofp) for __I$use$fp
    ddiv.o(x$fpl$ddiv) refers to dretinf.o(x$fpl$dretinf) for __fpl_dretinf
    ddiv.o(x$fpl$ddiv) refers to dnaninf.o(x$fpl$dnaninf) for __fpl_dnaninf
    dnaninf.o(x$fpl$dnaninf) refers (Special) to usenofp.o(x$fpl$usenofp) for __I$use$fp
    dretinf.o(x$fpl$dretinf) refers (Special) to usenofp.o(x$fpl$usenofp) for __I$use$fp
    fnaninf.o(x$fpl$fnaninf) refers (Special) to usenofp.o(x$fpl$usenofp) for __I$use$fp
    scalbn.o(x$fpl$scalbn) refers (Special) to usenofp.o(x$fpl$usenofp) for __I$use$fp
    scalbn.o(x$fpl$scalbn) refers to dcheck1.o(x$fpl$dcheck1) for __fpl_dcheck_NaN1
    dunder.o(i.__mathlib_dbl_underflow) refers to scalbn.o(x$fpl$scalbn) for __ARM_scalbn
    fpclassify.o(i.__ARM_fpclassify) refers (Special) to usenofp.o(x$fpl$usenofp) for __I$use$fp
    poly.o(i.__kernel_poly) refers (Special) to usenofp.o(x$fpl$usenofp) for __I$use$fp
    poly.o(i.__kernel_poly) refers to dmul.o(x$fpl$dmul) for __aeabi_dmul
    poly.o(i.__kernel_poly) refers to daddsub_clz.o(x$fpl$dadd) for __aeabi_dadd
    qnan.o(.constdata) refers (Special) to usenofp.o(x$fpl$usenofp) for __I$use$fp
    sqrt.o(i.__softfp_sqrt) refers (Special) to usenofp.o(x$fpl$usenofp) for __I$use$fp
    sqrt.o(i.__softfp_sqrt) refers to dsqrt_noumaal.o(x$fpl$dsqrt) for _dsqrt
    sqrt.o(i.__softfp_sqrt) refers to _rserrno.o(.text) for __set_errno
    sqrt.o(i.sqrt) refers (Special) to usenofp.o(x$fpl$usenofp) for __I$use$fp
    sqrt.o(i.sqrt) refers to dsqrt_noumaal.o(x$fpl$dsqrt) for _dsqrt
    sqrt.o(i.sqrt) refers to _rserrno.o(.text) for __set_errno
    sqrt_x.o(i.____softfp_sqrt$lsc) refers (Special) to usenofp.o(x$fpl$usenofp) for __I$use$fp
    sqrt_x.o(i.____softfp_sqrt$lsc) refers to dleqf.o(x$fpl$dleqf) for __aeabi_cdcmple
    sqrt_x.o(i.____softfp_sqrt$lsc) refers to _rserrno.o(.text) for __set_errno
    sqrt_x.o(i.____softfp_sqrt$lsc) refers to dsqrt_noumaal.o(x$fpl$dsqrt) for _dsqrt
    sqrt_x.o(i.__sqrt$lsc) refers (Special) to usenofp.o(x$fpl$usenofp) for __I$use$fp
    sqrt_x.o(i.__sqrt$lsc) refers to dleqf.o(x$fpl$dleqf) for __aeabi_cdcmple
    sqrt_x.o(i.__sqrt$lsc) refers to _rserrno.o(.text) for __set_errno
    sqrt_x.o(i.__sqrt$lsc) refers to dsqrt_noumaal.o(x$fpl$dsqrt) for _dsqrt
    sys_command.o(.text) refers (Special) to use_no_semi.o(.text) for __I$use$semihosting
    sys_command.o(.text) refers (Special) to indicate_semi.o(.text) for __semihosting_library_function
    libspace.o(.text) refers to libspace.o(.bss) for __libspace_start
    rtentry2.o(.ARM.Collect$$rtentry$$00000008) refers to boardinit2.o(.text) for _platform_post_stackheap_init
    rtentry2.o(.ARM.Collect$$rtentry$$0000000A) refers to libinit.o(.ARM.Collect$$libinit$$00000000) for __rt_lib_init
    rtentry2.o(.ARM.Collect$$rtentry$$0000000B) refers to boardinit3.o(.text) for _platform_post_lib_init
    rtentry2.o(.ARM.Collect$$rtentry$$0000000D) refers to startup.o(.text) for main
    rtentry2.o(.ARM.Collect$$rtentry$$0000000D) refers to exit.o(.text) for exit
    rtentry2.o(.ARM.exidx) refers to rtentry2.o(.ARM.Collect$$rtentry$$00000001) for .ARM.Collect$$rtentry$$00000001
    rtentry2.o(.ARM.exidx) refers to rtentry2.o(.ARM.Collect$$rtentry$$00000008) for .ARM.Collect$$rtentry$$00000008
    rtentry2.o(.ARM.exidx) refers to rtentry2.o(.ARM.Collect$$rtentry$$0000000A) for .ARM.Collect$$rtentry$$0000000A
    rtentry2.o(.ARM.exidx) refers to rtentry2.o(.ARM.Collect$$rtentry$$0000000B) for .ARM.Collect$$rtentry$$0000000B
    rtentry2.o(.ARM.exidx) refers to rtentry2.o(.ARM.Collect$$rtentry$$0000000D) for .ARM.Collect$$rtentry$$0000000D
    rtentry4.o(.ARM.Collect$$rtentry$$00000004) refers to sys_stackheap_outer.o(.text) for __user_setup_stackheap
    rtentry4.o(.ARM.exidx) refers to rtentry4.o(.ARM.Collect$$rtentry$$00000004) for .ARM.Collect$$rtentry$$00000004
    maybetermalloc2.o(.emb_text) refers (Special) to term_alloc.o(.text) for _terminate_alloc
    h1_extend.o(.text) refers to h1_free.o(.text) for free
    h1_extend_mt.o(.text) refers to h1_free_mt.o(.text) for _free_internal
    isspace.o(.text) refers to rt_ctype_table.o(.text) for __rt_ctype_table
    _printf_fp_infnan.o(.text) refers (Weak) to _printf_pad.o(.text) for _printf_pre_padding
    _printf_fp_infnan.o(.text) refers (Weak) to _printf_pad.o(.text) for _printf_post_padding
    _printf_wchar.o(.text) refers (Weak) to _printf_wctomb.o(.text) for _printf_wctomb
    _scanf.o(.text) refers (Weak) to _scanf_int.o(.text) for _scanf_int
    bigflt0.o(.text) refers (Special) to usenofp.o(x$fpl$usenofp) for __I$use$fp
    bigflt0.o(.text) refers to btod.o(CL$$btod_emul) for _btod_emul
    bigflt0.o(.text) refers to btod.o(CL$$btod_ediv) for _btod_ediv
    bigflt0.o(.text) refers to bigflt0.o(.constdata) for .constdata
    bigflt0.o(.constdata) refers (Special) to usenofp.o(x$fpl$usenofp) for __I$use$fp
    btod.o(CL$$btod_d2e) refers (Special) to usenofp.o(x$fpl$usenofp) for __I$use$fp
    btod.o(CL$$btod_d2e) refers to btod.o(CL$$btod_d2e_norm_op1) for _d2e_norm_op1
    btod.o(CL$$btod_d2e_norm_op1) refers (Special) to usenofp.o(x$fpl$usenofp) for __I$use$fp
    btod.o(CL$$btod_d2e_norm_op1) refers to btod.o(CL$$btod_d2e_denorm_low) for _d2e_denorm_low
    btod.o(CL$$btod_d2e_denorm_low) refers (Special) to usenofp.o(x$fpl$usenofp) for __I$use$fp
    btod.o(CL$$btod_emul) refers (Special) to usenofp.o(x$fpl$usenofp) for __I$use$fp
    btod.o(CL$$btod_emul) refers to btod.o(CL$$btod_mult_common) for __btod_mult_common
    btod.o(CL$$btod_emul) refers to btod.o(CL$$btod_e2e) for _e2e
    btod.o(CL$$btod_ediv) refers (Special) to usenofp.o(x$fpl$usenofp) for __I$use$fp
    btod.o(CL$$btod_ediv) refers to btod.o(CL$$btod_div_common) for __btod_div_common
    btod.o(CL$$btod_ediv) refers to btod.o(CL$$btod_e2e) for _e2e
    btod.o(CL$$btod_emuld) refers (Special) to usenofp.o(x$fpl$usenofp) for __I$use$fp
    btod.o(CL$$btod_emuld) refers to btod.o(CL$$btod_mult_common) for __btod_mult_common
    btod.o(CL$$btod_emuld) refers to btod.o(CL$$btod_e2d) for _e2d
    btod.o(CL$$btod_edivd) refers (Special) to usenofp.o(x$fpl$usenofp) for __I$use$fp
    btod.o(CL$$btod_edivd) refers to btod.o(CL$$btod_div_common) for __btod_div_common
    btod.o(CL$$btod_edivd) refers to btod.o(CL$$btod_e2d) for _e2d
    btod.o(CL$$btod_e2e) refers (Special) to usenofp.o(x$fpl$usenofp) for __I$use$fp
    btod.o(CL$$btod_e2d) refers (Special) to usenofp.o(x$fpl$usenofp) for __I$use$fp
    btod.o(CL$$btod_e2d) refers to btod.o(CL$$btod_e2e) for _e2e
    btod.o(CL$$btod_mult_common) refers (Special) to usenofp.o(x$fpl$usenofp) for __I$use$fp
    btod.o(CL$$btod_div_common) refers (Special) to usenofp.o(x$fpl$usenofp) for __I$use$fp
    filbuf.o(.text) refers to sys_io.o(.text) for _sys_read
    filbuf.o(.text) refers to stdio.o(.text) for _seterr
    filbuf.o(.text) refers to h1_alloc.o(.text) for malloc
    filbuf.o(.text) refers to flushlinebuffered.o(.text) for _flushlinebuffered
    flsbuf.o(.text) refers to stdio.o(.text) for _deferredlazyseek
    flsbuf.o(.text) refers to sys_io.o(.text) for _sys_flen
    flsbuf.o(.text) refers to h1_alloc.o(.text) for malloc
    ftell.o(.text) refers to rt_errno_addr_intlibspace.o(.text) for __aeabi_errno_addr
    _wcrtomb.o(.text) refers to rt_ctype_table.o(.text) for __rt_ctype_table
    lc_ctype_c.o(locale$$data) refers (Special) to libinit2.o(.ARM.Collect$$libinit$$0000000E) for __rt_lib_init_lc_ctype_2
    lc_ctype_c.o(locale$$code) refers (Special) to libinit2.o(.ARM.Collect$$libinit$$0000000E) for __rt_lib_init_lc_ctype_2
    lc_ctype_c.o(locale$$code) refers to shell.o(.text) for strcmp
    lc_ctype_c.o(locale$$code) refers to lc_ctype_c.o(locale$$data) for __lcctype_c_name
    lc_numeric_c.o(locale$$data) refers (Special) to libinit2.o(.ARM.Collect$$libinit$$00000012) for __rt_lib_init_lc_numeric_2
    lc_numeric_c.o(locale$$code) refers (Special) to libinit2.o(.ARM.Collect$$libinit$$00000012) for __rt_lib_init_lc_numeric_2
    lc_numeric_c.o(locale$$code) refers to shell.o(.text) for strcmp
    lc_numeric_c.o(locale$$code) refers to lc_numeric_c.o(locale$$data) for __lcnum_c_name
    defsig_rtred_outer.o(.text) refers to defsig_rtred_inner.o(.text) for __rt_SIGRTRED_inner
    defsig_rtred_outer.o(.text) refers to defsig_exit.o(.text) for __sig_exit
    defsig_rtred_formal.o(.text) refers to rt_raise.o(.text) for __rt_raise
    defsig_rtmem_outer.o(.text) refers to defsig_rtmem_inner.o(.text) for __rt_SIGRTMEM_inner
    defsig_rtmem_outer.o(.text) refers to defsig_exit.o(.text) for __sig_exit
    defsig_rtmem_formal.o(.text) refers to rt_raise.o(.text) for __rt_raise
    heapauxa.o(.text) refers to heapauxa.o(.data) for .data
    argv_veneer.o(.emb_text) refers to no_argv.o(.text) for __ARM_get_argv
    libshutdown2.o(.ARM.Collect$$libshutdown$$00000002) refers (Weak) to initio.o(.text) for _terminateio
    libshutdown2.o(.ARM.Collect$$libshutdown$$0000000C) refers (Weak) to term_alloc.o(.text) for _terminate_alloc
    filbuf_fwide.o(.text) refers to filbuf.o(.text) for __filbuf
    flsbuf_fwide.o(.text) refers to flsbuf.o(.text) for __flsbuf
    dcheck1.o(x$fpl$dcheck1) refers (Special) to usenofp.o(x$fpl$usenofp) for __I$use$fp
    dcheck1.o(x$fpl$dcheck1) refers to retnan.o(x$fpl$retnan) for __fpl_return_NaN
    dsqrt_noumaal.o(x$fpl$dsqrt) refers (Special) to usenofp.o(x$fpl$usenofp) for __I$use$fp
    dsqrt_noumaal.o(x$fpl$dsqrt) refers to dnaninf.o(x$fpl$dnaninf) for __fpl_dnaninf
    istatus.o(x$fpl$ieeestatus) refers (Special) to usenofp.o(x$fpl$usenofp) for __I$use$fp
    printf2.o(x$fpl$printf2) refers to _printf_fp_hex.o(.text) for _printf_fp_hex_real
    printf2b.o(x$fpl$printf2) refers to _printf_fp_hex.o(.text) for _printf_fp_hex_real
    sys_stackheap_outer.o(.text) refers to libspace.o(.text) for __user_perproc_libspace
    sys_stackheap_outer.o(.text) refers to startup_stm32f10x_cl.o(.text) for __user_initial_stackheap
    rt_raise.o(.text) refers to __raise.o(.text) for __raise
    rt_raise.o(.text) refers to sys_exit.o(.text) for _sys_exit
    term_alloc.o(.text) refers (Special) to libshutdown2.o(.ARM.Collect$$libshutdown$$0000000D) for __rt_lib_shutdown_heap_2
    term_alloc.o(.text) refers to rt_heap_descriptor_intlibspace.o(.text) for __rt_heap_descriptor
    term_alloc.o(.text) refers to h1_final.o(.text) for __Heap_Finalize
    _printf_fp_hex.o(.text) refers (Special) to usenofp.o(x$fpl$usenofp) for __I$use$fp
    _printf_fp_hex.o(.text) refers to fpclassify.o(i.__ARM_fpclassify) for __ARM_fpclassify
    _printf_fp_hex.o(.text) refers to _printf_fp_infnan.o(.text) for _printf_fp_infnan
    _printf_fp_hex.o(.text) refers (Weak) to _printf_pad.o(.text) for _printf_pre_padding
    _printf_fp_hex.o(.text) refers (Weak) to _printf_pad.o(.text) for _printf_pre_padding
    _printf_fp_hex.o(.text) refers (Weak) to _printf_pad.o(.text) for _printf_post_padding
    _printf_fp_hex.o(.text) refers to _printf_fp_hex.o(.constdata) for .constdata
    _printf_fp_hex.o(.constdata) refers (Special) to usenofp.o(x$fpl$usenofp) for __I$use$fp
    _printf_char_file_locked.o(.text) refers to _printf_char_common.o(.text) for _printf_char_common
    _printf_char_file_locked.o(.text) refers to fputc.o(i._fputc$unlocked) for _fputc$unlocked
    freadfast.o(.text) refers to filbuf.o(.text) for _readbuf
    freadfast.o(.text) refers to rt_memcpy_v6.o(.text) for __aeabi_memcpy
    fread_bytes_avail.o(.text) refers to filbuf.o(.text) for __filbuf_byte
    fread_bytes_avail.o(.text) refers to rt_memcpy_v6.o(.text) for __aeabi_memcpy
    fwritefast.o(.text) refers to stdio.o(.text) for _writebuf
    fwritefast.o(.text) refers to flsbuf.o(.text) for __flsbuf_byte
    fwritefast.o(.text) refers to rt_memcpy_v6.o(.text) for __aeabi_memcpy
    flushlinebuffered.o(.text) refers to fflush.o(.text) for _do_fflush
    flushlinebuffered.o(.text) refers to stdio_streams.o(.bss) for __stdin
    freadfast_locked.o(.text) refers to filbuf.o(.text) for _readbuf
    freadfast_locked.o(.text) refers to rt_memcpy_v6.o(.text) for __aeabi_memcpy
    fread_bytes_avail_locked.o(.text) refers to filbuf.o(.text) for __filbuf_byte
    fread_bytes_avail_locked.o(.text) refers to rt_memcpy_v6.o(.text) for __aeabi_memcpy
    fwritefast_locked.o(.text) refers to stdio.o(.text) for _writebuf
    fwritefast_locked.o(.text) refers to flsbuf.o(.text) for __flsbuf_byte
    fwritefast_locked.o(.text) refers to rt_memcpy_v6.o(.text) for __aeabi_memcpy
    flushlinebuffered_locked.o(.text) refers to fflush.o(.text) for _do_fflush
    flushlinebuffered_locked.o(.text) refers to streamlock.o(.data) for _stream_list_lock
    flushlinebuffered_locked.o(.text) refers to stdio_streams.o(.bss) for __stdin
    exit.o(.text) refers to rtexit.o(.ARM.Collect$$rtexit$$00000000) for __rt_exit
    defsig_exit.o(.text) refers to sys_exit.o(.text) for _sys_exit
    defsig_rtred_inner.o(.text) refers to defsig_general.o(.text) for __default_signal_display
    defsig_rtmem_inner.o(.text) refers to defsig_general.o(.text) for __default_signal_display
    assert_stdio.o(.text) refers to fputs.o(.text) for fputs
    assert_stdio.o(.text) refers to fflush.o(.text) for fflush
    assert_stdio.o(.text) refers to stdio_streams.o(.bss) for __stderr
    _get_argv_nomalloc.o(.text) refers (Special) to hrguard.o(.text) for __heap_region$guard
    _get_argv_nomalloc.o(.text) refers to defsig_rtmem_outer.o(.text) for __rt_SIGRTMEM
    _get_argv_nomalloc.o(.text) refers to sys_command.o(.text) for _sys_command_string
    libinit.o(.ARM.Collect$$libinit$$00000000) refers (Special) to libinit2.o(.ARM.Collect$$libinit$$0000002A) for __rt_lib_init_alloca_1
    libinit.o(.ARM.Collect$$libinit$$00000000) refers (Special) to libinit2.o(.ARM.Collect$$libinit$$00000028) for __rt_lib_init_argv_1
    libinit.o(.ARM.Collect$$libinit$$00000000) refers (Special) to libinit2.o(.ARM.Collect$$libinit$$00000017) for __rt_lib_init_atexit_1
    libinit.o(.ARM.Collect$$libinit$$00000000) refers (Special) to libinit2.o(.ARM.Collect$$libinit$$0000001D) for __rt_lib_init_clock_1
    libinit.o(.ARM.Collect$$libinit$$00000000) refers (Special) to libinit2.o(.ARM.Collect$$libinit$$0000002E) for __rt_lib_init_cpp_1
    libinit.o(.ARM.Collect$$libinit$$00000000) refers (Special) to libinit2.o(.ARM.Collect$$libinit$$0000002C) for __rt_lib_init_exceptions_1
    libinit.o(.ARM.Collect$$libinit$$00000000) refers (Special) to libinit2.o(.ARM.Collect$$libinit$$0000001B) for __rt_lib_init_fp_trap_1
    libinit.o(.ARM.Collect$$libinit$$00000000) refers (Special) to libinit2.o(.ARM.Collect$$libinit$$0000001F) for __rt_lib_init_getenv_1
    libinit.o(.ARM.Collect$$libinit$$00000000) refers (Special) to libinit2.o(.ARM.Collect$$libinit$$00000006) for __rt_lib_init_heap_1
    libinit.o(.ARM.Collect$$libinit$$00000000) refers (Special) to libinit2.o(.ARM.Collect$$libinit$$0000000D) for __rt_lib_init_lc_collate_1
    libinit.o(.ARM.Collect$$libinit$$00000000) refers (Special) to libinit2.o(.ARM.Collect$$libinit$$0000000F) for __rt_lib_init_lc_ctype_1
    libinit.o(.ARM.Collect$$libinit$$00000000) refers (Special) to libinit2.o(.ARM.Collect$$libinit$$00000011) for __rt_lib_init_lc_monetary_1
    libinit.o(.ARM.Collect$$libinit$$00000000) refers (Special) to libinit2.o(.ARM.Collect$$libinit$$00000013) for __rt_lib_init_lc_numeric_1
    libinit.o(.ARM.Collect$$libinit$$00000000) refers (Special) to libinit2.o(.ARM.Collect$$libinit$$00000015) for __rt_lib_init_lc_time_1
    libinit.o(.ARM.Collect$$libinit$$00000000) refers (Special) to libinit2.o(.ARM.Collect$$libinit$$0000000A) for __rt_lib_init_rand_1
    libinit.o(.ARM.Collect$$libinit$$00000000) refers (Special) to libinit2.o(.ARM.Collect$$libinit$$0000002F) for __rt_lib_init_return
    libinit.o(.ARM.Collect$$libinit$$00000000) refers (Special) to libinit2.o(.ARM.Collect$$libinit$$00000019) for __rt_lib_init_signal_1
    libinit.o(.ARM.Collect$$libinit$$00000000) refers (Special) to libinit2.o(.ARM.Collect$$libinit$$00000021) for __rt_lib_init_stdio_1
    libinit.o(.ARM.Collect$$libinit$$00000000) refers (Special) to libinit2.o(.ARM.Collect$$libinit$$00000008) for __rt_lib_init_user_alloc_1
    libinit.o(.ARM.Collect$$libinit$$00000000) refers to fpinit.o(x$fpl$fpinit) for _fp_init
    retnan.o(x$fpl$retnan) refers (Special) to usenofp.o(x$fpl$usenofp) for __I$use$fp
    retnan.o(x$fpl$retnan) refers to trapv.o(x$fpl$trapveneer) for __fpl_cmpreturn
    sys_exit.o(.text) refers (Special) to use_no_semi.o(.text) for __I$use$semihosting
    sys_exit.o(.text) refers (Special) to indicate_semi.o(.text) for __semihosting_library_function
    rtexit.o(.ARM.Collect$$rtexit$$00000000) refers (Special) to rtexit2.o(.ARM.Collect$$rtexit$$00000004) for __rt_exit_exit
    rtexit.o(.ARM.Collect$$rtexit$$00000000) refers (Special) to rtexit2.o(.ARM.Collect$$rtexit$$00000003) for __rt_exit_ls
    rtexit.o(.ARM.Collect$$rtexit$$00000000) refers (Special) to rtexit2.o(.ARM.Collect$$rtexit$$00000002) for __rt_exit_prels_1
    rtexit.o(.ARM.exidx) refers (Special) to rtexit2.o(.ARM.Collect$$rtexit$$00000004) for __rt_exit_exit
    rtexit.o(.ARM.exidx) refers (Special) to rtexit2.o(.ARM.Collect$$rtexit$$00000003) for __rt_exit_ls
    rtexit.o(.ARM.exidx) refers (Special) to rtexit2.o(.ARM.Collect$$rtexit$$00000002) for __rt_exit_prels_1
    rtexit.o(.ARM.exidx) refers to rtexit.o(.ARM.Collect$$rtexit$$00000000) for .ARM.Collect$$rtexit$$00000000
    fflush.o(.text) refers to stdio.o(.text) for _fflush
    fflush.o(.text) refers to fseek.o(.text) for _fseek
    fflush.o(.text) refers to stdio_streams.o(.bss) for __stdin
    fputs.o(.text) refers to fputc.o(i.fputc) for fputc
    fflush_locked.o(.text) refers to stdio.o(.text) for _fflush
    fflush_locked.o(.text) refers to fseek.o(.text) for _fseek
    fflush_locked.o(.text) refers to fflush.o(.text) for _do_fflush
    fflush_locked.o(.text) refers to streamlock.o(.data) for _stream_list_lock
    fflush_locked.o(.text) refers to stdio_streams.o(.bss) for __stdin
    __raise.o(.text) refers to defsig.o(CL$$defsig) for __default_signal_handler
    defsig_general.o(.text) refers to sys_wrch.o(.text) for _ttywrch
    fpinit.o(x$fpl$fpinit) refers to rt_fp_status_addr_intlibspace.o(.text) for __rt_fp_status_addr
    trapv.o(x$fpl$trapveneer) refers (Special) to usenofp.o(x$fpl$usenofp) for __I$use$fp
    sys_wrch.o(.text) refers (Special) to use_no_semi.o(.text) for __I$use$semihosting
    sys_wrch.o(.text) refers (Special) to indicate_semi.o(.text) for __semihosting_library_function
    rtexit2.o(.ARM.Collect$$rtexit$$00000003) refers to libshutdown.o(.ARM.Collect$$libshutdown$$00000000) for __rt_lib_shutdown
    rtexit2.o(.ARM.Collect$$rtexit$$00000004) refers to sys_exit.o(.text) for _sys_exit
    rtexit2.o(.ARM.exidx) refers to rtexit2.o(.ARM.Collect$$rtexit$$00000001) for .ARM.Collect$$rtexit$$00000001
    rtexit2.o(.ARM.exidx) refers to rtexit2.o(.ARM.Collect$$rtexit$$00000003) for .ARM.Collect$$rtexit$$00000003
    rtexit2.o(.ARM.exidx) refers to rtexit2.o(.ARM.Collect$$rtexit$$00000004) for .ARM.Collect$$rtexit$$00000004
    rt_fp_status_addr.o(.text) refers to rt_fp_status_addr.o(.bss) for __rt_fp_status_addr_data
    rt_fp_status_addr_intlibspace.o(.text) refers to libspace.o(.bss) for __libspace_start
    defsig.o(CL$$defsig) refers to defsig_rtred_inner.o(.text) for __rt_SIGRTRED_inner
    defsig.o(CL$$defsig) refers to defsig_rtmem_inner.o(.text) for __rt_SIGRTMEM_inner
    defsig_abrt_inner.o(.text) refers to defsig_general.o(.text) for __default_signal_display
    defsig_fpe_inner.o(.text) refers to defsig_general.o(.text) for __default_signal_display
    defsig_stak_inner.o(.text) refers to defsig_general.o(.text) for __default_signal_display
    defsig_pvfn_inner.o(.text) refers to defsig_general.o(.text) for __default_signal_display
    defsig_cppl_inner.o(.text) refers to defsig_general.o(.text) for __default_signal_display
    defsig_segv_inner.o(.text) refers to defsig_general.o(.text) for __default_signal_display
    defsig_other.o(.text) refers to defsig_general.o(.text) for __default_signal_display
    libshutdown.o(.ARM.Collect$$libshutdown$$00000000) refers (Special) to libshutdown2.o(.ARM.Collect$$libshutdown$$00000006) for __rt_lib_shutdown_fp_trap_1
    libshutdown.o(.ARM.Collect$$libshutdown$$00000000) refers (Special) to libshutdown2.o(.ARM.Collect$$libshutdown$$0000000E) for __rt_lib_shutdown_heap_1
    libshutdown.o(.ARM.Collect$$libshutdown$$00000000) refers (Special) to libshutdown2.o(.ARM.Collect$$libshutdown$$0000000F) for __rt_lib_shutdown_return
    libshutdown.o(.ARM.Collect$$libshutdown$$00000000) refers (Special) to libshutdown2.o(.ARM.Collect$$libshutdown$$00000009) for __rt_lib_shutdown_signal_1
    libshutdown.o(.ARM.Collect$$libshutdown$$00000000) refers (Special) to libshutdown2.o(.ARM.Collect$$libshutdown$$00000003) for __rt_lib_shutdown_stdio_1
    libshutdown.o(.ARM.Collect$$libshutdown$$00000000) refers (Special) to libshutdown2.o(.ARM.Collect$$libshutdown$$0000000B) for __rt_lib_shutdown_user_alloc_1


==============================================================================

Removing Unused input sections from the image.

    Removing application.o(.rev16_text), (4 bytes).
    Removing application.o(.revsh_text), (4 bytes).
    Removing application.o(.data), (4 bytes).
    Removing startup.o(.rev16_text), (4 bytes).
    Removing startup.o(.revsh_text), (4 bytes).
    Removing board.o(.rev16_text), (4 bytes).
    Removing board.o(.revsh_text), (4 bytes).
    Removing msd.o(.text), (3824 bytes).
    Removing msd.o(.bss), (88 bytes).
    Removing msd.o(.constdata), (15 bytes).
    Removing platform.o(.rev16_text), (4 bytes).
    Removing platform.o(.revsh_text), (4 bytes).
    Removing rt_stm32f10x_spi.o(.rev16_text), (4 bytes).
    Removing rt_stm32f10x_spi.o(.revsh_text), (4 bytes).
    Removing serial.o(.rev16_text), (4 bytes).
    Removing serial.o(.revsh_text), (4 bytes).
    Removing stm32_eth.o(.rev16_text), (4 bytes).
    Removing stm32_eth.o(.revsh_text), (4 bytes).
    Removing stm32f10x_it.o(.rev16_text), (4 bytes).
    Removing stm32f10x_it.o(.revsh_text), (4 bytes).
    Removing usart.o(.rev16_text), (4 bytes).
    Removing usart.o(.revsh_text), (4 bytes).
    Removing system_stm32f10x.o(.rev16_text), (4 bytes).
    Removing system_stm32f10x.o(.revsh_text), (4 bytes).
    Removing stm32f10x_crc.o(.rev16_text), (4 bytes).
    Removing stm32f10x_crc.o(.revsh_text), (4 bytes).
    Removing stm32f10x_crc.o(.text), (64 bytes).
    Removing stm32f10x_rcc.o(.rev16_text), (4 bytes).
    Removing stm32f10x_rcc.o(.revsh_text), (4 bytes).
    Removing stm32f10x_wwdg.o(.rev16_text), (4 bytes).
    Removing stm32f10x_wwdg.o(.revsh_text), (4 bytes).
    Removing stm32f10x_wwdg.o(.text), (260 bytes).
    Removing stm32f10x_pwr.o(.rev16_text), (4 bytes).
    Removing stm32f10x_pwr.o(.revsh_text), (4 bytes).
    Removing stm32f10x_pwr.o(.text), (416 bytes).
    Removing stm32f10x_exti.o(.rev16_text), (4 bytes).
    Removing stm32f10x_exti.o(.revsh_text), (4 bytes).
    Removing stm32f10x_exti.o(.text), (648 bytes).
    Removing stm32f10x_bkp.o(.rev16_text), (4 bytes).
    Removing stm32f10x_bkp.o(.revsh_text), (4 bytes).
    Removing stm32f10x_bkp.o(.text), (664 bytes).
    Removing stm32f10x_i2c.o(.rev16_text), (4 bytes).
    Removing stm32f10x_i2c.o(.revsh_text), (4 bytes).
    Removing stm32f10x_i2c.o(.text), (2748 bytes).
    Removing stm32f10x_adc.o(.rev16_text), (4 bytes).
    Removing stm32f10x_adc.o(.revsh_text), (4 bytes).
    Removing stm32f10x_adc.o(.text), (3136 bytes).
    Removing stm32f10x_dac.o(.rev16_text), (4 bytes).
    Removing stm32f10x_dac.o(.revsh_text), (4 bytes).
    Removing stm32f10x_dac.o(.text), (816 bytes).
    Removing stm32f10x_rtc.o(.rev16_text), (4 bytes).
    Removing stm32f10x_rtc.o(.revsh_text), (4 bytes).
    Removing stm32f10x_rtc.o(.text), (476 bytes).
    Removing stm32f10x_fsmc.o(.rev16_text), (4 bytes).
    Removing stm32f10x_fsmc.o(.revsh_text), (4 bytes).
    Removing stm32f10x_fsmc.o(.text), (2820 bytes).
    Removing stm32f10x_tim.o(.rev16_text), (4 bytes).
    Removing stm32f10x_tim.o(.revsh_text), (4 bytes).
    Removing stm32f10x_tim.o(.text), (12744 bytes).
    Removing stm32f10x_iwdg.o(.rev16_text), (4 bytes).
    Removing stm32f10x_iwdg.o(.revsh_text), (4 bytes).
    Removing stm32f10x_iwdg.o(.text), (216 bytes).
    Removing stm32f10x_spi.o(.rev16_text), (4 bytes).
    Removing stm32f10x_spi.o(.revsh_text), (4 bytes).
    Removing stm32f10x_flash.o(.rev16_text), (4 bytes).
    Removing stm32f10x_flash.o(.revsh_text), (4 bytes).
    Removing stm32f10x_flash.o(.text), (1556 bytes).
    Removing stm32f10x_sdio.o(.rev16_text), (4 bytes).
    Removing stm32f10x_sdio.o(.revsh_text), (4 bytes).
    Removing stm32f10x_sdio.o(.text), (1444 bytes).
    Removing stm32f10x_gpio.o(.rev16_text), (4 bytes).
    Removing stm32f10x_gpio.o(.revsh_text), (4 bytes).
    Removing stm32f10x_usart.o(.rev16_text), (4 bytes).
    Removing stm32f10x_usart.o(.revsh_text), (4 bytes).
    Removing stm32f10x_dbgmcu.o(.rev16_text), (4 bytes).
    Removing stm32f10x_dbgmcu.o(.revsh_text), (4 bytes).
    Removing stm32f10x_dbgmcu.o(.text), (140 bytes).
    Removing stm32f10x_dma.o(.rev16_text), (4 bytes).
    Removing stm32f10x_dma.o(.revsh_text), (4 bytes).
    Removing stm32f10x_can.o(.rev16_text), (4 bytes).
    Removing stm32f10x_can.o(.revsh_text), (4 bytes).
    Removing stm32f10x_can.o(.text), (3456 bytes).
    Removing stm32f10x_cec.o(.rev16_text), (4 bytes).
    Removing stm32f10x_cec.o(.revsh_text), (4 bytes).
    Removing stm32f10x_cec.o(.text), (620 bytes).
    Removing misc.o(.rev16_text), (4 bytes).
    Removing misc.o(.revsh_text), (4 bytes).
    Removing backtrace.o(.text), (2 bytes).
    Removing div0.o(.text), (2 bytes).
    Removing showmem.o(.text), (156 bytes).
    Removing showmem.o(.constdata), (18 bytes).
    Removing dfs.o(.rti_fn.3), (4 bytes).
    Removing dfs_elm.o(.text), (2392 bytes).
    Removing dfs_elm.o(.constdata), (185 bytes).
    Removing dfs_elm.o(.conststring), (4 bytes).
    Removing dfs_elm.o(.data), (8 bytes).
    Removing dfs_elm.o(.rti_fn.4), (4 bytes).
    Removing ff.o(.text), (7884 bytes).
    Removing ff.o(.constdata), (44 bytes).
    Removing ff.o(.data), (12 bytes).
    Removing shell.o(.rti_fn.3), (4 bytes).
    Removing clock_time.o(.text), (416 bytes).
    Removing clock_time.o(.constdata), (19 bytes).
    Removing clock_time.o(.data), (8 bytes).
    Removing mqueue.o(.text), (608 bytes).
    Removing mqueue.o(.bss), (32 bytes).
    Removing mqueue.o(.data), (4 bytes).
    Removing pthread.o(.text), (1440 bytes).
    Removing pthread.o(.constdata), (166 bytes).
    Removing pthread.o(.data), (2 bytes).
    Removing pthread_attr.o(.text), (668 bytes).
    Removing pthread_attr.o(.constdata), (365 bytes).
    Removing pthread_barrier.o(.text), (158 bytes).
    Removing pthread_cond.o(.text), (420 bytes).
    Removing pthread_cond.o(.data), (2 bytes).
    Removing pthread_mutex.o(.text), (436 bytes).
    Removing pthread_mutex.o(.constdata), (4 bytes).
    Removing pthread_mutex.o(.data), (2 bytes).
    Removing pthread_rwlock.o(.text), (836 bytes).
    Removing pthread_spin.o(.text), (88 bytes).
    Removing pthread_tls.o(.text), (444 bytes).
    Removing pthread_tls.o(.bss), (64 bytes).
    Removing pthread_tls.o(.constdata), (58 bytes).
    Removing sched.o(.text), (46 bytes).
    Removing semaphore.o(.text), (752 bytes).
    Removing semaphore.o(.bss), (32 bytes).
    Removing semaphore.o(.data), (8 bytes).
    Removing err.o(.text), (16 bytes).
    Removing err.o(.conststring), (274 bytes).
    Removing err.o(.data), (64 bytes).
    Removing netdb.o(.text), (564 bytes).
    Removing netdb.o(.bss), (20 bytes).
    Removing netdb.o(.data), (20 bytes).
    Removing sys_arch.o(.rti_fn.3), (4 bytes).
    Removing sys.o(.text), (34 bytes).
    Removing ethernetif.o(.rti_fn.2), (4 bytes).
    Removing nanohttp-base64.o(.text), (296 bytes).
    Removing nanohttp-base64.o(.constdata), (146 bytes).
    Removing nanohttp-client.o(.text), (2248 bytes).
    Removing nanohttp-client.o(.constdata), (129 bytes).
    Removing nanohttp-client.o(.data), (4 bytes).
    Removing nanohttp-common.o(.text), (2000 bytes).
    Removing nanohttp-common.o(.constdata), (110 bytes).
    Removing nanohttp-logging.o(.text), (328 bytes).
    Removing nanohttp-logging.o(.bss), (75 bytes).
    Removing nanohttp-logging.o(.data), (8 bytes).
    Removing nanohttp-mime.o(.text), (2806 bytes).
    Removing nanohttp-mime.o(.constdata), (252 bytes).
    Removing nanohttp-request.o(.text), (952 bytes).
    Removing nanohttp-request.o(.constdata), (61 bytes).
    Removing nanohttp-response.o(.text), (888 bytes).
    Removing nanohttp-response.o(.constdata), (64 bytes).
    Removing nanohttp-server.o(.text), (4712 bytes).
    Removing nanohttp-server.o(.bss), (64 bytes).
    Removing nanohttp-server.o(.constdata), (439 bytes).
    Removing nanohttp-server.o(.data), (36 bytes).
    Removing nanohttp-server.o(.data), (4 bytes).
    Removing nanohttp-server.o(.data), (4 bytes).
    Removing nanohttp-socket.o(.text), (1580 bytes).
    Removing nanohttp-socket.o(.constdata), (137 bytes).
    Removing nanohttp-ssl.o(.text), (164 bytes).
    Removing nanohttp-stream.o(.text), (1812 bytes).
    Removing nanohttp-stream.o(.constdata), (143 bytes).
    Removing cjson.o(.text), (3956 bytes).
    Removing cjson.o(.constdata), (7 bytes).
    Removing cjson.o(.data), (12 bytes).

166 unused section(s) (total 78653 bytes) removed from the image.

==============================================================================

Image Symbol Table

    Local Symbols

    Symbol Name                              Value     Ov Type        Size  Object(Section)

    ../../angel/boardlib.s                   0x00000000   Number         0  boardinit1.o ABSOLUTE
    ../../angel/boardlib.s                   0x00000000   Number         0  boardinit2.o ABSOLUTE
    ../../angel/boardlib.s                   0x00000000   Number         0  boardinit3.o ABSOLUTE
    ../../angel/boardlib.s                   0x00000000   Number         0  boardshut.o ABSOLUTE
    ../../angel/dczerorl2.s                  0x00000000   Number         0  __dczerorl2.o ABSOLUTE
    ../../angel/handlers.s                   0x00000000   Number         0  __scatter_zi.o ABSOLUTE
    ../../angel/kernel.s                     0x00000000   Number         0  rtentry4.o ABSOLUTE
    ../../angel/kernel.s                     0x00000000   Number         0  rtentry.o ABSOLUTE
    ../../angel/kernel.s                     0x00000000   Number         0  rtentry2.o ABSOLUTE
    ../../angel/kernel.s                     0x00000000   Number         0  rtexit2.o ABSOLUTE
    ../../angel/kernel.s                     0x00000000   Number         0  rtexit.o ABSOLUTE
    ../../angel/rt.s                         0x00000000   Number         0  rt_fp_status_addr_intlibspace.o ABSOLUTE
    ../../angel/rt.s                         0x00000000   Number         0  rt_ctype_table.o ABSOLUTE
    ../../angel/rt.s                         0x00000000   Number         0  rt_raise.o ABSOLUTE
    ../../angel/rt.s                         0x00000000   Number         0  rt_fp_status_addr.o ABSOLUTE
    ../../angel/rt.s                         0x00000000   Number         0  rt_heap_descriptor.o ABSOLUTE
    ../../angel/rt.s                         0x00000000   Number         0  rt_errno_addr_intlibspace.o ABSOLUTE
    ../../angel/rt.s                         0x00000000   Number         0  rt_errno_addr.o ABSOLUTE
    ../../angel/rt.s                         0x00000000   Number         0  rt_locale.o ABSOLUTE
    ../../angel/rt.s                         0x00000000   Number         0  rt_heap_descriptor_intlibspace.o ABSOLUTE
    ../../angel/rt.s                         0x00000000   Number         0  rt_locale_intlibspace.o ABSOLUTE
    ../../angel/scatter.s                    0x00000000   Number         0  __scatter.o ABSOLUTE
    ../../angel/startup.s                    0x00000000   Number         0  __main.o ABSOLUTE
    ../../angel/sys.s                        0x00000000   Number         0  sys_stackheap_outer.o ABSOLUTE
    ../../angel/sys.s                        0x00000000   Number         0  indicate_semi.o ABSOLUTE
    ../../angel/sys.s                        0x00000000   Number         0  mutex_dummy.o ABSOLUTE
    ../../angel/sys.s                        0x00000000   Number         0  use_no_semi.o ABSOLUTE
    ../../angel/sys.s                        0x00000000   Number         0  libspace.o ABSOLUTE
    ../../angel/sysapp.c                     0x00000000   Number         0  sys_remove.o ABSOLUTE
    ../../angel/sysapp.c                     0x00000000   Number         0  sys_command.o ABSOLUTE
    ../../angel/sysapp.c                     0x00000000   Number         0  sys_exit.o ABSOLUTE
    ../../angel/sysapp.c                     0x00000000   Number         0  sys_wrch.o ABSOLUTE
    ../../angel/sysapp.c                     0x00000000   Number         0  sys_io.o ABSOLUTE
    ../../angel/sysapp.c                     0x00000000   Number         0  sys_time.o ABSOLUTE
    ../../armsys.c                           0x00000000   Number         0  argv_veneer.o ABSOLUTE
    ../../armsys.c                           0x00000000   Number         0  argv_veneer.o ABSOLUTE
    ../../armsys.c                           0x00000000   Number         0  no_argv.o ABSOLUTE
    ../../armsys.c                           0x00000000   Number         0  _get_argv.o ABSOLUTE
    ../../armsys.c                           0x00000000   Number         0  _get_argv_nomalloc.o ABSOLUTE
    ../../assert.c                           0x00000000   Number         0  assert_stdio.o ABSOLUTE
    ../../bigflt.c                           0x00000000   Number         0  bigflt0.o ABSOLUTE
    ../../btod.s                             0x00000000   Number         0  btod.o ABSOLUTE
    ../../ctype.c                            0x00000000   Number         0  tolower.o ABSOLUTE
    ../../ctype.c                            0x00000000   Number         0  toupper.o ABSOLUTE
    ../../ctype.c                            0x00000000   Number         0  isspace.o ABSOLUTE
    ../../daddsub.s                          0x00000000   Number         0  daddsub_clz.o ABSOLUTE
    ../../dcheck1.s                          0x00000000   Number         0  dcheck1.o ABSOLUTE
    ../../dcmpi.s                            0x00000000   Number         0  dcmpi.o ABSOLUTE
    ../../ddiv.s                             0x00000000   Number         0  ddiv.o ABSOLUTE
    ../../dfix.s                             0x00000000   Number         0  dfix.o ABSOLUTE
    ../../dflt.s                             0x00000000   Number         0  dflt_clz.o ABSOLUTE
    ../../dleqf.s                            0x00000000   Number         0  dleqf.o ABSOLUTE
    ../../dmul.s                             0x00000000   Number         0  dmul.o ABSOLUTE
    ../../dnaninf.s                          0x00000000   Number         0  dnaninf.o ABSOLUTE
    ../../dretinf.s                          0x00000000   Number         0  dretinf.o ABSOLUTE
    ../../drleqf.s                           0x00000000   Number         0  drleqf.o ABSOLUTE
    ../../dsqrt.s                            0x00000000   Number         0  dsqrt_noumaal.o ABSOLUTE
    ../../dunder.c                           0x00000000   Number         0  dunder.o ABSOLUTE
    ../../f2d.s                              0x00000000   Number         0  f2d.o ABSOLUTE
    ../../fenv.c                             0x00000000   Number         0  _rserrno.o ABSOLUTE
    ../../floor.c                            0x00000000   Number         0  floor.o ABSOLUTE
    ../../fnaninf.s                          0x00000000   Number         0  fnaninf.o ABSOLUTE
    ../../fpclassify.c                       0x00000000   Number         0  fpclassify.o ABSOLUTE
    ../../fpinit.s                           0x00000000   Number         0  fpinit.o ABSOLUTE
    ../../heap1.c                            0x00000000   Number         0  h1_final_mt.o ABSOLUTE
    ../../heap1.c                            0x00000000   Number         0  h1_extend.o ABSOLUTE
    ../../heap1.c                            0x00000000   Number         0  h1_extend_mt.o ABSOLUTE
    ../../heap1.c                            0x00000000   Number         0  h1_final.o ABSOLUTE
    ../../heap1.c                            0x00000000   Number         0  h1_init.o ABSOLUTE
    ../../heap1.c                            0x00000000   Number         0  h1_init_mt.o ABSOLUTE
    ../../heap1.c                            0x00000000   Number         0  h1_free_mt.o ABSOLUTE
    ../../heap1.c                            0x00000000   Number         0  h1_free.o ABSOLUTE
    ../../heap1.c                            0x00000000   Number         0  h1_alloc_mt.o ABSOLUTE
    ../../heap1.c                            0x00000000   Number         0  h1_alloc.o ABSOLUTE
    ../../heap2.c                            0x00000000   Number         0  fdtree.o ABSOLUTE
    ../../heap2.c                            0x00000000   Number         0  heap2.o ABSOLUTE
    ../../heap2.c                            0x00000000   Number         0  heap2mt.o ABSOLUTE
    ../../heapalloc.c                        0x00000000   Number         0  term_alloc.o ABSOLUTE
    ../../heapalloc.c                        0x00000000   Number         0  hrguard.o ABSOLUTE
    ../../heapalloc.c                        0x00000000   Number         0  maybetermalloc2.o ABSOLUTE
    ../../heapalloc.c                        0x00000000   Number         0  malloc.o ABSOLUTE
    ../../heapalloc.c                        0x00000000   Number         0  free.o ABSOLUTE
    ../../heapalloc.c                        0x00000000   Number         0  calloc.o ABSOLUTE
    ../../heapalloc.c                        0x00000000   Number         0  maybetermalloc1.o ABSOLUTE
    ../../heapalloc.c                        0x00000000   Number         0  maybetermalloc2.o ABSOLUTE
    ../../heapalloc.c                        0x00000000   Number         0  heapstubs.o ABSOLUTE
    ../../heapalloc.c                        0x00000000   Number         0  hguard.o ABSOLUTE
    ../../heapalloc.c                        0x00000000   Number         0  init_alloc.o ABSOLUTE
    ../../heapalloc.c                        0x00000000   Number         0  maybetermalloc1.o ABSOLUTE
    ../../heapaux.c                          0x00000000   Number         0  heapauxa.o ABSOLUTE
    ../../heapaux.c                          0x00000000   Number         0  heapauxi.o ABSOLUTE
    ../../istatus.s                          0x00000000   Number         0  istatus.o ABSOLUTE
    ../../libinit.s                          0x00000000   Number         0  libshutdown2.o ABSOLUTE
    ../../libinit.s                          0x00000000   Number         0  libinit.o ABSOLUTE
    ../../libinit.s                          0x00000000   Number         0  libinit2.o ABSOLUTE
    ../../libinit.s                          0x00000000   Number         0  libshutdown.o ABSOLUTE
    ../../locale.c                           0x00000000   Number         0  _wcrtomb.o ABSOLUTE
    ../../locale.s                           0x00000000   Number         0  lc_time_c.o ABSOLUTE
    ../../locale.s                           0x00000000   Number         0  lc_numeric_c.o ABSOLUTE
    ../../locale.s                           0x00000000   Number         0  lc_ctype_c.o ABSOLUTE
    ../../longlong.s                         0x00000000   Number         0  lludiv10.o ABSOLUTE
    ../../memcpset.s                         0x00000000   Number         0  aeabi_memset.o ABSOLUTE
    ../../memcpset.s                         0x00000000   Number         0  rt_memcpy_w.o ABSOLUTE
    ../../memcpset.s                         0x00000000   Number         0  rt_memcpy_v6.o ABSOLUTE
    ../../memcpset.s                         0x00000000   Number         0  rt_memclr_w.o ABSOLUTE
    ../../memcpset.s                         0x00000000   Number         0  strncpy.o ABSOLUTE
    ../../memcpset.s                         0x00000000   Number         0  rt_memclr.o ABSOLUTE
    ../../misc.s                             0x00000000   Number         0  printf_stubs.o ABSOLUTE
    ../../poly.c                             0x00000000   Number         0  poly.o ABSOLUTE
    ../../pow.c                              0x00000000   Number         0  pow_x.o ABSOLUTE
    ../../pow.c                              0x00000000   Number         0  pow.o ABSOLUTE
    ../../printf.c                           0x00000000   Number         0  _printf_str.o ABSOLUTE
    ../../printf.c                           0x00000000   Number         0  _printf_dec.o ABSOLUTE
    ../../printf.c                           0x00000000   Number         0  _printf_charcount.o ABSOLUTE
    ../../printf.c                           0x00000000   Number         0  _printf_hex_ll.o ABSOLUTE
    ../../printf.c                           0x00000000   Number         0  _printf_hex_int.o ABSOLUTE
    ../../printf.c                           0x00000000   Number         0  _printf_fp_dec.o ABSOLUTE
    ../../printf.c                           0x00000000   Number         0  _printf_char_common.o ABSOLUTE
    ../../printf.c                           0x00000000   Number         0  _sputc.o ABSOLUTE
    ../../printf.c                           0x00000000   Number         0  _snputc.o ABSOLUTE
    ../../printf.c                           0x00000000   Number         0  _printf_char.o ABSOLUTE
    ../../printf.c                           0x00000000   Number         0  _printf_char_file.o ABSOLUTE
    ../../printf.c                           0x00000000   Number         0  _printf_wctomb.o ABSOLUTE
    ../../printf.c                           0x00000000   Number         0  _printf_longlong_dec.o ABSOLUTE
    ../../printf.c                           0x00000000   Number         0  _printf_hex_int_ll.o ABSOLUTE
    ../../printf.c                           0x00000000   Number         0  _printf_hex_ptr.o ABSOLUTE
    ../../printf.c                           0x00000000   Number         0  _printf_hex_int_ptr.o ABSOLUTE
    ../../printf.c                           0x00000000   Number         0  _printf_wchar.o ABSOLUTE
    ../../printf.c                           0x00000000   Number         0  __printf_nopercent.o ABSOLUTE
    ../../printf.c                           0x00000000   Number         0  _printf_fp_infnan.o ABSOLUTE
    ../../printf.c                           0x00000000   Number         0  _printf_oct_ll.o ABSOLUTE
    ../../printf.c                           0x00000000   Number         0  _printf_hex_ll_ptr.o ABSOLUTE
    ../../printf.c                           0x00000000   Number         0  _printf_oct_int.o ABSOLUTE
    ../../printf.c                           0x00000000   Number         0  _printf_oct_int_ll.o ABSOLUTE
    ../../printf.c                           0x00000000   Number         0  _printf_hex_int_ll_ptr.o ABSOLUTE
    ../../printf.c                           0x00000000   Number         0  _printf_truncate.o ABSOLUTE
    ../../printf.c                           0x00000000   Number         0  __printf_flags.o ABSOLUTE
    ../../printf.c                           0x00000000   Number         0  noretval__2snprintf.o ABSOLUTE
    ../../printf.c                           0x00000000   Number         0  __printf.o ABSOLUTE
    ../../printf.c                           0x00000000   Number         0  __printf_ss.o ABSOLUTE
    ../../printf.c                           0x00000000   Number         0  __printf_flags_ss.o ABSOLUTE
    ../../printf.c                           0x00000000   Number         0  _printf_intcommon.o ABSOLUTE
    ../../printf.c                           0x00000000   Number         0  __printf_wp.o ABSOLUTE
    ../../printf.c                           0x00000000   Number         0  __printf_flags_wp.o ABSOLUTE
    ../../printf.c                           0x00000000   Number         0  __printf_ss_wp.o ABSOLUTE
    ../../printf.c                           0x00000000   Number         0  sprintf.o ABSOLUTE
    ../../printf.c                           0x00000000   Number         0  __printf_flags_ss_wp.o ABSOLUTE
    ../../printf.c                           0x00000000   Number         0  _printf_pad.o ABSOLUTE
    ../../printf.c                           0x00000000   Number         0  _printf_char_file_locked.o ABSOLUTE
    ../../printf.c                           0x00000000   Number         0  _printf_fp_hex.o ABSOLUTE
    ../../printf.c                           0x00000000   Number         0  noretval__2sprintf.o ABSOLUTE
    ../../printf.c                           0x00000000   Number         0  c89vsprintf.o ABSOLUTE
    ../../printf.c                           0x00000000   Number         0  __2fprintf.o ABSOLUTE
    ../../printf.c                           0x00000000   Number         0  __2sprintf.o ABSOLUTE
    ../../printf.c                           0x00000000   Number         0  __2snprintf.o ABSOLUTE
    ../../printf.c                           0x00000000   Number         0  noretval__2fprintf.o ABSOLUTE
    ../../printf1.s                          0x00000000   Number         0  printf1.o ABSOLUTE
    ../../printf2.s                          0x00000000   Number         0  printf2.o ABSOLUTE
    ../../printf2a.s                         0x00000000   Number         0  printf2a.o ABSOLUTE
    ../../printf2b.s                         0x00000000   Number         0  printf2b.o ABSOLUTE
    ../../printf_percent.s                   0x00000000   Number         0  _printf_lli.o ABSOLUTE
    ../../printf_percent.s                   0x00000000   Number         0  _printf_lld.o ABSOLUTE
    ../../printf_percent.s                   0x00000000   Number         0  _printf_llu.o ABSOLUTE
    ../../printf_percent.s                   0x00000000   Number         0  _printf_ll.o ABSOLUTE
    ../../printf_percent.s                   0x00000000   Number         0  _printf_l.o ABSOLUTE
    ../../printf_percent.s                   0x00000000   Number         0  _printf_lc.o ABSOLUTE
    ../../printf_percent.s                   0x00000000   Number         0  _printf_n.o ABSOLUTE
    ../../printf_percent.s                   0x00000000   Number         0  _printf_ls.o ABSOLUTE
    ../../printf_percent.s                   0x00000000   Number         0  _printf_e.o ABSOLUTE
    ../../printf_percent.s                   0x00000000   Number         0  _printf_f.o ABSOLUTE
    ../../printf_percent.s                   0x00000000   Number         0  _printf_percent.o ABSOLUTE
    ../../printf_percent.s                   0x00000000   Number         0  _printf_d.o ABSOLUTE
    ../../printf_percent.s                   0x00000000   Number         0  _printf_llx.o ABSOLUTE
    ../../printf_percent.s                   0x00000000   Number         0  _printf_p.o ABSOLUTE
    ../../printf_percent.s                   0x00000000   Number         0  _printf_x.o ABSOLUTE
    ../../printf_percent.s                   0x00000000   Number         0  _printf_s.o ABSOLUTE
    ../../printf_percent.s                   0x00000000   Number         0  _printf_llo.o ABSOLUTE
    ../../printf_percent.s                   0x00000000   Number         0  _printf_c.o ABSOLUTE
    ../../printf_percent.s                   0x00000000   Number         0  _printf_o.o ABSOLUTE
    ../../printf_percent.s                   0x00000000   Number         0  _printf_i.o ABSOLUTE
    ../../printf_percent.s                   0x00000000   Number         0  _printf_u.o ABSOLUTE
    ../../printf_percent.s                   0x00000000   Number         0  _printf_g.o ABSOLUTE
    ../../printf_percent.s                   0x00000000   Number         0  _printf_a.o ABSOLUTE
    ../../printf_percent.s                   0x00000000   Number         0  _printf_percent_end.o ABSOLUTE
    ../../qnan.c                             0x00000000   Number         0  qnan.o ABSOLUTE
    ../../retnan.s                           0x00000000   Number         0  retnan.o ABSOLUTE
    ../../scalbn.s                           0x00000000   Number         0  scalbn.o ABSOLUTE
    ../../scanf.c                            0x00000000   Number         0  __0sscanf.o ABSOLUTE
    ../../scanf.c                            0x00000000   Number         0  scanf_char.o ABSOLUTE
    ../../scanf.c                            0x00000000   Number         0  _scanf_int.o ABSOLUTE
    ../../scanf.c                            0x00000000   Number         0  _strtoul.o ABSOLUTE
    ../../scanf.c                            0x00000000   Number         0  strtol.o ABSOLUTE
    ../../scanf.c                            0x00000000   Number         0  _chval.o ABSOLUTE
    ../../scanf.c                            0x00000000   Number         0  _scanf.o ABSOLUTE
    ../../scanf.c                            0x00000000   Number         0  atoi.o ABSOLUTE
    ../../scanf.c                            0x00000000   Number         0  _sgetc.o ABSOLUTE
    ../../scanf.c                            0x00000000   Number         0  atol.o ABSOLUTE
    ../../signal.c                           0x00000000   Number         0  defsig_general.o ABSOLUTE
    ../../signal.c                           0x00000000   Number         0  defsig_rtmem_formal.o ABSOLUTE
    ../../signal.c                           0x00000000   Number         0  defsig_rtmem_outer.o ABSOLUTE
    ../../signal.c                           0x00000000   Number         0  defsig_rtred_formal.o ABSOLUTE
    ../../signal.c                           0x00000000   Number         0  defsig_rtred_outer.o ABSOLUTE
    ../../signal.c                           0x00000000   Number         0  __raise.o ABSOLUTE
    ../../signal.c                           0x00000000   Number         0  defsig_other.o ABSOLUTE
    ../../signal.c                           0x00000000   Number         0  defsig_rtred_inner.o ABSOLUTE
    ../../signal.c                           0x00000000   Number         0  defsig_rtmem_inner.o ABSOLUTE
    ../../signal.c                           0x00000000   Number         0  defsig_exit.o ABSOLUTE
    ../../signal.c                           0x00000000   Number         0  defsig_abrt_inner.o ABSOLUTE
    ../../signal.c                           0x00000000   Number         0  defsig_fpe_inner.o ABSOLUTE
    ../../signal.c                           0x00000000   Number         0  defsig_stak_inner.o ABSOLUTE
    ../../signal.c                           0x00000000   Number         0  defsig_pvfn_inner.o ABSOLUTE
    ../../signal.c                           0x00000000   Number         0  defsig_cppl_inner.o ABSOLUTE
    ../../signal.c                           0x00000000   Number         0  defsig_segv_inner.o ABSOLUTE
    ../../signal.s                           0x00000000   Number         0  defsig.o ABSOLUTE
    ../../sqrt.c                             0x00000000   Number         0  sqrt_x.o ABSOLUTE
    ../../sqrt.c                             0x00000000   Number         0  sqrt.o ABSOLUTE
    ../../stdio.c                            0x00000000   Number         0  setvbuf.o ABSOLUTE
    ../../stdio.c                            0x00000000   Number         0  initio_locked.o ABSOLUTE
    ../../stdio.c                            0x00000000   Number         0  fgetc_locked.o ABSOLUTE
    ../../stdio.c                            0x00000000   Number         0  initio.o ABSOLUTE
    ../../stdio.c                            0x00000000   Number         0  fputc_locked.o ABSOLUTE
    ../../stdio.c                            0x00000000   Number         0  stdio.o ABSOLUTE
    ../../stdio.c                            0x00000000   Number         0  fclose_locked.o ABSOLUTE
    ../../stdio.c                            0x00000000   Number         0  feof_locked.o ABSOLUTE
    ../../stdio.c                            0x00000000   Number         0  fopen_locked.o ABSOLUTE
    ../../stdio.c                            0x00000000   Number         0  flushlinebuffered_locked.o ABSOLUTE
    ../../stdio.c                            0x00000000   Number         0  fwritefast_locked.o ABSOLUTE
    ../../stdio.c                            0x00000000   Number         0  fread_bytes_avail_locked.o ABSOLUTE
    ../../stdio.c                            0x00000000   Number         0  fwrite.o ABSOLUTE
    ../../stdio.c                            0x00000000   Number         0  freadfast_locked.o ABSOLUTE
    ../../stdio.c                            0x00000000   Number         0  streamlock.o ABSOLUTE
    ../../stdio.c                            0x00000000   Number         0  flushlinebuffered.o ABSOLUTE
    ../../stdio.c                            0x00000000   Number         0  fwritefast.o ABSOLUTE
    ../../stdio.c                            0x00000000   Number         0  fread_bytes_avail.o ABSOLUTE
    ../../stdio.c                            0x00000000   Number         0  freadfast.o ABSOLUTE
    ../../stdio.c                            0x00000000   Number         0  fseek.o ABSOLUTE
    ../../stdio.c                            0x00000000   Number         0  fputc.o ABSOLUTE
    ../../stdio.c                            0x00000000   Number         0  fgetc.o ABSOLUTE
    ../../stdio.c                            0x00000000   Number         0  fopen.o ABSOLUTE
    ../../stdio.c                            0x00000000   Number         0  fread.o ABSOLUTE
    ../../stdio.c                            0x00000000   Number         0  feof.o ABSOLUTE
    ../../stdio.c                            0x00000000   Number         0  fflush.o ABSOLUTE
    ../../stdio.c                            0x00000000   Number         0  fputs.o ABSOLUTE
    ../../stdio.c                            0x00000000   Number         0  fputs_locked.o ABSOLUTE
    ../../stdio.c                            0x00000000   Number         0  fflush_locked.o ABSOLUTE
    ../../stdio.c                            0x00000000   Number         0  setvbuf_locked.o ABSOLUTE
    ../../stdio.c                            0x00000000   Number         0  ferror_locked.o ABSOLUTE
    ../../stdio.c                            0x00000000   Number         0  filbuf.o ABSOLUTE
    ../../stdio.c                            0x00000000   Number         0  ftell.o ABSOLUTE
    ../../stdio.c                            0x00000000   Number         0  flsbuf.o ABSOLUTE
    ../../stdio.c                            0x00000000   Number         0  ferror.o ABSOLUTE
    ../../stdio.c                            0x00000000   Number         0  stdio_streams.o ABSOLUTE
    ../../stdio.c                            0x00000000   Number         0  fclose.o ABSOLUTE
    ../../stdlib.c                           0x00000000   Number         0  exit.o ABSOLUTE
    ../../string.c                           0x00000000   Number         0  strtok_int.o ABSOLUTE
    ../../string.c                           0x00000000   Number         0  strcspn.o ABSOLUTE
    ../../string.c                           0x00000000   Number         0  strchr.o ABSOLUTE
    ../../string.c                           0x00000000   Number         0  strstr.o ABSOLUTE
    ../../string.c                           0x00000000   Number         0  strspn.o ABSOLUTE
    ../../string.c                           0x00000000   Number         0  strtok_r.o ABSOLUTE
    ../../string.c                           0x00000000   Number         0  strlen.o ABSOLUTE
    ../../string.c                           0x00000000   Number         0  strcpy.o ABSOLUTE
    ../../string.c                           0x00000000   Number         0  strcat.o ABSOLUTE
    ../../string.c                           0x00000000   Number         0  strncasecmp.o ABSOLUTE
    ../../string.c                           0x00000000   Number         0  strncmp.o ABSOLUTE
    ../../string.c                           0x00000000   Number         0  strerror.o ABSOLUTE
    ../../time.c                             0x00000000   Number         0  mktime.o ABSOLUTE
    ../../time.c                             0x00000000   Number         0  localtime_internal.o ABSOLUTE
    ../../time.c                             0x00000000   Number         0  strftime.o ABSOLUTE
    ../../time.c                             0x00000000   Number         0  _monlen.o ABSOLUTE
    ../../trapv.s                            0x00000000   Number         0  trapv.o ABSOLUTE
    ../../usenofp.s                          0x00000000   Number         0  usenofp.o ABSOLUTE
    ../../wchar.c                            0x00000000   Number         0  filbuf_fwide.o ABSOLUTE
    ../../wchar.c                            0x00000000   Number         0  flsbuf_fwide.o ABSOLUTE
    ..\..\cJSON\cJSON.c                      0x00000000   Number         0  cjson.o ABSOLUTE
    ..\..\components\dfs\filesystems\elmfat\dfs_elm.c 0x00000000   Number         0  dfs_elm.o ABSOLUTE
    ..\..\components\dfs\filesystems\elmfat\ff.c 0x00000000   Number         0  ff.o ABSOLUTE
    ..\..\components\dfs\src\dfs.c           0x00000000   Number         0  dfs.o ABSOLUTE
    ..\..\components\dfs\src\dfs_file.c      0x00000000   Number         0  dfs_file.o ABSOLUTE
    ..\..\components\dfs\src\dfs_fs.c        0x00000000   Number         0  dfs_fs.o ABSOLUTE
    ..\..\components\dfs\src\dfs_posix.c     0x00000000   Number         0  dfs_posix.o ABSOLUTE
    ..\..\components\drivers\spi\spi_core.c  0x00000000   Number         0  spi_core.o ABSOLUTE
    ..\..\components\drivers\spi\spi_dev.c   0x00000000   Number         0  spi_dev.o ABSOLUTE
    ..\..\components\finsh\cmd.c             0x00000000   Number         0  cmd.o ABSOLUTE
    ..\..\components\finsh\finsh_compiler.c  0x00000000   Number         0  finsh_compiler.o ABSOLUTE
    ..\..\components\finsh\finsh_error.c     0x00000000   Number         0  finsh_error.o ABSOLUTE
    ..\..\components\finsh\finsh_heap.c      0x00000000   Number         0  finsh_heap.o ABSOLUTE
    ..\..\components\finsh\finsh_init.c      0x00000000   Number         0  finsh_init.o ABSOLUTE
    ..\..\components\finsh\finsh_node.c      0x00000000   Number         0  finsh_node.o ABSOLUTE
    ..\..\components\finsh\finsh_ops.c       0x00000000   Number         0  finsh_ops.o ABSOLUTE
    ..\..\components\finsh\finsh_parser.c    0x00000000   Number         0  finsh_parser.o ABSOLUTE
    ..\..\components\finsh\finsh_token.c     0x00000000   Number         0  finsh_token.o ABSOLUTE
    ..\..\components\finsh\finsh_var.c       0x00000000   Number         0  finsh_var.o ABSOLUTE
    ..\..\components\finsh\finsh_vm.c        0x00000000   Number         0  finsh_vm.o ABSOLUTE
    ..\..\components\finsh\shell.c           0x00000000   Number         0  shell.o ABSOLUTE
    ..\..\components\finsh\symbol.c          0x00000000   Number         0  symbol.o ABSOLUTE
    ..\..\components\init\components.c       0x00000000   Number         0  components.o ABSOLUTE
    ..\..\components\net\lwip\src\api\api_lib.c 0x00000000   Number         0  api_lib.o ABSOLUTE
    ..\..\components\net\lwip\src\api\api_msg.c 0x00000000   Number         0  api_msg.o ABSOLUTE
    ..\..\components\net\lwip\src\api\err.c  0x00000000   Number         0  err.o ABSOLUTE
    ..\..\components\net\lwip\src\api\netbuf.c 0x00000000   Number         0  netbuf.o ABSOLUTE
    ..\..\components\net\lwip\src\api\netdb.c 0x00000000   Number         0  netdb.o ABSOLUTE
    ..\..\components\net\lwip\src\api\netifapi.c 0x00000000   Number         0  netifapi.o ABSOLUTE
    ..\..\components\net\lwip\src\api\sockets.c 0x00000000   Number         0  sockets.o ABSOLUTE
    ..\..\components\net\lwip\src\api\tcpip.c 0x00000000   Number         0  tcpip.o ABSOLUTE
    ..\..\components\net\lwip\src\arch\sys_arch.c 0x00000000   Number         0  sys_arch.o ABSOLUTE
    ..\..\components\net\lwip\src\core\def.c 0x00000000   Number         0  def.o ABSOLUTE
    ..\..\components\net\lwip\src\core\dhcp.c 0x00000000   Number         0  dhcp.o ABSOLUTE
    ..\..\components\net\lwip\src\core\dns.c 0x00000000   Number         0  dns.o ABSOLUTE
    ..\..\components\net\lwip\src\core\init.c 0x00000000   Number         0  init.o ABSOLUTE
    ..\..\components\net\lwip\src\core\ipv4\autoip.c 0x00000000   Number         0  autoip.o ABSOLUTE
    ..\..\components\net\lwip\src\core\ipv4\icmp.c 0x00000000   Number         0  icmp.o ABSOLUTE
    ..\..\components\net\lwip\src\core\ipv4\igmp.c 0x00000000   Number         0  igmp.o ABSOLUTE
    ..\..\components\net\lwip\src\core\ipv4\inet.c 0x00000000   Number         0  inet.o ABSOLUTE
    ..\..\components\net\lwip\src\core\ipv4\inet_chksum.c 0x00000000   Number         0  inet_chksum.o ABSOLUTE
    ..\..\components\net\lwip\src\core\ipv4\ip.c 0x00000000   Number         0  ip.o ABSOLUTE
    ..\..\components\net\lwip\src\core\ipv4\ip_addr.c 0x00000000   Number         0  ip_addr.o ABSOLUTE
    ..\..\components\net\lwip\src\core\ipv4\ip_frag.c 0x00000000   Number         0  ip_frag.o ABSOLUTE
    ..\..\components\net\lwip\src\core\memp.c 0x00000000   Number         0  memp.o ABSOLUTE
    ..\..\components\net\lwip\src\core\netif.c 0x00000000   Number         0  netif.o ABSOLUTE
    ..\..\components\net\lwip\src\core\pbuf.c 0x00000000   Number         0  pbuf.o ABSOLUTE
    ..\..\components\net\lwip\src\core\raw.c 0x00000000   Number         0  raw.o ABSOLUTE
    ..\..\components\net\lwip\src\core\stats.c 0x00000000   Number         0  stats.o ABSOLUTE
    ..\..\components\net\lwip\src\core\sys.c 0x00000000   Number         0  sys.o ABSOLUTE
    ..\..\components\net\lwip\src\core\tcp.c 0x00000000   Number         0  tcp.o ABSOLUTE
    ..\..\components\net\lwip\src\core\tcp_in.c 0x00000000   Number         0  tcp_in.o ABSOLUTE
    ..\..\components\net\lwip\src\core\tcp_out.c 0x00000000   Number         0  tcp_out.o ABSOLUTE
    ..\..\components\net\lwip\src\core\timers.c 0x00000000   Number         0  timers.o ABSOLUTE
    ..\..\components\net\lwip\src\core\udp.c 0x00000000   Number         0  udp.o ABSOLUTE
    ..\..\components\net\lwip\src\netif\etharp.c 0x00000000   Number         0  etharp.o ABSOLUTE
    ..\..\components\net\lwip\src\netif\ethernetif.c 0x00000000   Number         0  ethernetif.o ABSOLUTE
    ..\..\components\net\lwip\src\netif\slipif.c 0x00000000   Number         0  slipif.o ABSOLUTE
    ..\..\components\pthreads\clock_time.c   0x00000000   Number         0  clock_time.o ABSOLUTE
    ..\..\components\pthreads\mqueue.c       0x00000000   Number         0  mqueue.o ABSOLUTE
    ..\..\components\pthreads\pthread.c      0x00000000   Number         0  pthread.o ABSOLUTE
    ..\..\components\pthreads\pthread_attr.c 0x00000000   Number         0  pthread_attr.o ABSOLUTE
    ..\..\components\pthreads\pthread_barrier.c 0x00000000   Number         0  pthread_barrier.o ABSOLUTE
    ..\..\components\pthreads\pthread_cond.c 0x00000000   Number         0  pthread_cond.o ABSOLUTE
    ..\..\components\pthreads\pthread_mutex.c 0x00000000   Number         0  pthread_mutex.o ABSOLUTE
    ..\..\components\pthreads\pthread_rwlock.c 0x00000000   Number         0  pthread_rwlock.o ABSOLUTE
    ..\..\components\pthreads\pthread_spin.c 0x00000000   Number         0  pthread_spin.o ABSOLUTE
    ..\..\components\pthreads\pthread_tls.c  0x00000000   Number         0  pthread_tls.o ABSOLUTE
    ..\..\components\pthreads\sched.c        0x00000000   Number         0  sched.o ABSOLUTE
    ..\..\components\pthreads\semaphore.c    0x00000000   Number         0  semaphore.o ABSOLUTE
    ..\..\libcpu\arm\common\backtrace.c      0x00000000   Number         0  backtrace.o ABSOLUTE
    ..\..\libcpu\arm\common\div0.c           0x00000000   Number         0  div0.o ABSOLUTE
    ..\..\libcpu\arm\common\showmem.c        0x00000000   Number         0  showmem.o ABSOLUTE
    ..\..\libcpu\arm\cortex-m3\context_rvds.S 0x00000000   Number         0  context_rvds.o ABSOLUTE
    ..\..\libcpu\arm\cortex-m3\cpuport.c     0x00000000   Number         0  cpuport.o ABSOLUTE
    ..\..\nanohttp\nanohttp-base64.c         0x00000000   Number         0  nanohttp-base64.o ABSOLUTE
    ..\..\nanohttp\nanohttp-client.c         0x00000000   Number         0  nanohttp-client.o ABSOLUTE
    ..\..\nanohttp\nanohttp-common.c         0x00000000   Number         0  nanohttp-common.o ABSOLUTE
    ..\..\nanohttp\nanohttp-logging.c        0x00000000   Number         0  nanohttp-logging.o ABSOLUTE
    ..\..\nanohttp\nanohttp-mime.c           0x00000000   Number         0  nanohttp-mime.o ABSOLUTE
    ..\..\nanohttp\nanohttp-request.c        0x00000000   Number         0  nanohttp-request.o ABSOLUTE
    ..\..\nanohttp\nanohttp-response.c       0x00000000   Number         0  nanohttp-response.o ABSOLUTE
    ..\..\nanohttp\nanohttp-server.c         0x00000000   Number         0  nanohttp-server.o ABSOLUTE
    ..\..\nanohttp\nanohttp-socket.c         0x00000000   Number         0  nanohttp-socket.o ABSOLUTE
    ..\..\nanohttp\nanohttp-ssl.c            0x00000000   Number         0  nanohttp-ssl.o ABSOLUTE
    ..\..\nanohttp\nanohttp-stream.c         0x00000000   Number         0  nanohttp-stream.o ABSOLUTE
    ..\..\src\clock.c                        0x00000000   Number         0  clock.o ABSOLUTE
    ..\..\src\device.c                       0x00000000   Number         0  device.o ABSOLUTE
    ..\..\src\idle.c                         0x00000000   Number         0  idle.o ABSOLUTE
    ..\..\src\ipc.c                          0x00000000   Number         0  ipc.o ABSOLUTE
    ..\..\src\irq.c                          0x00000000   Number         0  irq.o ABSOLUTE
    ..\..\src\kservice.c                     0x00000000   Number         0  kservice.o ABSOLUTE
    ..\..\src\mem.c                          0x00000000   Number         0  mem.o ABSOLUTE
    ..\..\src\mempool.c                      0x00000000   Number         0  mempool.o ABSOLUTE
    ..\..\src\object.c                       0x00000000   Number         0  object.o ABSOLUTE
    ..\..\src\scheduler.c                    0x00000000   Number         0  scheduler.o ABSOLUTE
    ..\..\src\thread.c                       0x00000000   Number         0  thread.o ABSOLUTE
    ..\..\src\timer.c                        0x00000000   Number         0  timer.o ABSOLUTE
    Libraries\CMSIS\CM3\DeviceSupport\ST\STM32F10x\startup\arm\startup_stm32f10x_cl.s 0x00000000   Number         0  startup_stm32f10x_cl.o ABSOLUTE
    Libraries\CMSIS\CM3\DeviceSupport\ST\STM32F10x\system_stm32f10x.c 0x00000000   Number         0  system_stm32f10x.o ABSOLUTE
    Libraries\STM32F10x_StdPeriph_Driver\src\misc.c 0x00000000   Number         0  misc.o ABSOLUTE
    Libraries\STM32F10x_StdPeriph_Driver\src\stm32f10x_adc.c 0x00000000   Number         0  stm32f10x_adc.o ABSOLUTE
    Libraries\STM32F10x_StdPeriph_Driver\src\stm32f10x_bkp.c 0x00000000   Number         0  stm32f10x_bkp.o ABSOLUTE
    Libraries\STM32F10x_StdPeriph_Driver\src\stm32f10x_can.c 0x00000000   Number         0  stm32f10x_can.o ABSOLUTE
    Libraries\STM32F10x_StdPeriph_Driver\src\stm32f10x_cec.c 0x00000000   Number         0  stm32f10x_cec.o ABSOLUTE
    Libraries\STM32F10x_StdPeriph_Driver\src\stm32f10x_crc.c 0x00000000   Number         0  stm32f10x_crc.o ABSOLUTE
    Libraries\STM32F10x_StdPeriph_Driver\src\stm32f10x_dac.c 0x00000000   Number         0  stm32f10x_dac.o ABSOLUTE
    Libraries\STM32F10x_StdPeriph_Driver\src\stm32f10x_dbgmcu.c 0x00000000   Number         0  stm32f10x_dbgmcu.o ABSOLUTE
    Libraries\STM32F10x_StdPeriph_Driver\src\stm32f10x_dma.c 0x00000000   Number         0  stm32f10x_dma.o ABSOLUTE
    Libraries\STM32F10x_StdPeriph_Driver\src\stm32f10x_exti.c 0x00000000   Number         0  stm32f10x_exti.o ABSOLUTE
    Libraries\STM32F10x_StdPeriph_Driver\src\stm32f10x_flash.c 0x00000000   Number         0  stm32f10x_flash.o ABSOLUTE
    Libraries\STM32F10x_StdPeriph_Driver\src\stm32f10x_fsmc.c 0x00000000   Number         0  stm32f10x_fsmc.o ABSOLUTE
    Libraries\STM32F10x_StdPeriph_Driver\src\stm32f10x_gpio.c 0x00000000   Number         0  stm32f10x_gpio.o ABSOLUTE
    Libraries\STM32F10x_StdPeriph_Driver\src\stm32f10x_i2c.c 0x00000000   Number         0  stm32f10x_i2c.o ABSOLUTE
    Libraries\STM32F10x_StdPeriph_Driver\src\stm32f10x_iwdg.c 0x00000000   Number         0  stm32f10x_iwdg.o ABSOLUTE
    Libraries\STM32F10x_StdPeriph_Driver\src\stm32f10x_pwr.c 0x00000000   Number         0  stm32f10x_pwr.o ABSOLUTE
    Libraries\STM32F10x_StdPeriph_Driver\src\stm32f10x_rcc.c 0x00000000   Number         0  stm32f10x_rcc.o ABSOLUTE
    Libraries\STM32F10x_StdPeriph_Driver\src\stm32f10x_rtc.c 0x00000000   Number         0  stm32f10x_rtc.o ABSOLUTE
    Libraries\STM32F10x_StdPeriph_Driver\src\stm32f10x_sdio.c 0x00000000   Number         0  stm32f10x_sdio.o ABSOLUTE
    Libraries\STM32F10x_StdPeriph_Driver\src\stm32f10x_spi.c 0x00000000   Number         0  stm32f10x_spi.o ABSOLUTE
    Libraries\STM32F10x_StdPeriph_Driver\src\stm32f10x_tim.c 0x00000000   Number         0  stm32f10x_tim.o ABSOLUTE
    Libraries\STM32F10x_StdPeriph_Driver\src\stm32f10x_usart.c 0x00000000   Number         0  stm32f10x_usart.o ABSOLUTE
    Libraries\STM32F10x_StdPeriph_Driver\src\stm32f10x_wwdg.c 0x00000000   Number         0  stm32f10x_wwdg.o ABSOLUTE
    Libraries\\CMSIS\\CM3\\DeviceSupport\\ST\\STM32F10x\\system_stm32f10x.c 0x00000000   Number         0  system_stm32f10x.o ABSOLUTE
    Libraries\\STM32F10x_StdPeriph_Driver\\src\\misc.c 0x00000000   Number         0  misc.o ABSOLUTE
    Libraries\\STM32F10x_StdPeriph_Driver\\src\\stm32f10x_adc.c 0x00000000   Number         0  stm32f10x_adc.o ABSOLUTE
    Libraries\\STM32F10x_StdPeriph_Driver\\src\\stm32f10x_bkp.c 0x00000000   Number         0  stm32f10x_bkp.o ABSOLUTE
    Libraries\\STM32F10x_StdPeriph_Driver\\src\\stm32f10x_can.c 0x00000000   Number         0  stm32f10x_can.o ABSOLUTE
    Libraries\\STM32F10x_StdPeriph_Driver\\src\\stm32f10x_cec.c 0x00000000   Number         0  stm32f10x_cec.o ABSOLUTE
    Libraries\\STM32F10x_StdPeriph_Driver\\src\\stm32f10x_crc.c 0x00000000   Number         0  stm32f10x_crc.o ABSOLUTE
    Libraries\\STM32F10x_StdPeriph_Driver\\src\\stm32f10x_dac.c 0x00000000   Number         0  stm32f10x_dac.o ABSOLUTE
    Libraries\\STM32F10x_StdPeriph_Driver\\src\\stm32f10x_dbgmcu.c 0x00000000   Number         0  stm32f10x_dbgmcu.o ABSOLUTE
    Libraries\\STM32F10x_StdPeriph_Driver\\src\\stm32f10x_dma.c 0x00000000   Number         0  stm32f10x_dma.o ABSOLUTE
    Libraries\\STM32F10x_StdPeriph_Driver\\src\\stm32f10x_exti.c 0x00000000   Number         0  stm32f10x_exti.o ABSOLUTE
    Libraries\\STM32F10x_StdPeriph_Driver\\src\\stm32f10x_flash.c 0x00000000   Number         0  stm32f10x_flash.o ABSOLUTE
    Libraries\\STM32F10x_StdPeriph_Driver\\src\\stm32f10x_fsmc.c 0x00000000   Number         0  stm32f10x_fsmc.o ABSOLUTE
    Libraries\\STM32F10x_StdPeriph_Driver\\src\\stm32f10x_gpio.c 0x00000000   Number         0  stm32f10x_gpio.o ABSOLUTE
    Libraries\\STM32F10x_StdPeriph_Driver\\src\\stm32f10x_i2c.c 0x00000000   Number         0  stm32f10x_i2c.o ABSOLUTE
    Libraries\\STM32F10x_StdPeriph_Driver\\src\\stm32f10x_iwdg.c 0x00000000   Number         0  stm32f10x_iwdg.o ABSOLUTE
    Libraries\\STM32F10x_StdPeriph_Driver\\src\\stm32f10x_pwr.c 0x00000000   Number         0  stm32f10x_pwr.o ABSOLUTE
    Libraries\\STM32F10x_StdPeriph_Driver\\src\\stm32f10x_rcc.c 0x00000000   Number         0  stm32f10x_rcc.o ABSOLUTE
    Libraries\\STM32F10x_StdPeriph_Driver\\src\\stm32f10x_rtc.c 0x00000000   Number         0  stm32f10x_rtc.o ABSOLUTE
    Libraries\\STM32F10x_StdPeriph_Driver\\src\\stm32f10x_sdio.c 0x00000000   Number         0  stm32f10x_sdio.o ABSOLUTE
    Libraries\\STM32F10x_StdPeriph_Driver\\src\\stm32f10x_spi.c 0x00000000   Number         0  stm32f10x_spi.o ABSOLUTE
    Libraries\\STM32F10x_StdPeriph_Driver\\src\\stm32f10x_tim.c 0x00000000   Number         0  stm32f10x_tim.o ABSOLUTE
    Libraries\\STM32F10x_StdPeriph_Driver\\src\\stm32f10x_usart.c 0x00000000   Number         0  stm32f10x_usart.o ABSOLUTE
    Libraries\\STM32F10x_StdPeriph_Driver\\src\\stm32f10x_wwdg.c 0x00000000   Number         0  stm32f10x_wwdg.o ABSOLUTE
    applications\\application.c              0x00000000   Number         0  application.o ABSOLUTE
    applications\\startup.c                  0x00000000   Number         0  startup.o ABSOLUTE
    applications\application.c               0x00000000   Number         0  application.o ABSOLUTE
    applications\startup.c                   0x00000000   Number         0  startup.o ABSOLUTE
    dc.s                                     0x00000000   Number         0  dc.o ABSOLUTE
    drivers\\board.c                         0x00000000   Number         0  board.o ABSOLUTE
    drivers\\platform.c                      0x00000000   Number         0  platform.o ABSOLUTE
    drivers\\rt_stm32f10x_spi.c              0x00000000   Number         0  rt_stm32f10x_spi.o ABSOLUTE
    drivers\\serial.c                        0x00000000   Number         0  serial.o ABSOLUTE
    drivers\\stm32_eth.c                     0x00000000   Number         0  stm32_eth.o ABSOLUTE
    drivers\\stm32f10x_it.c                  0x00000000   Number         0  stm32f10x_it.o ABSOLUTE
    drivers\\usart.c                         0x00000000   Number         0  usart.o ABSOLUTE
    drivers\board.c                          0x00000000   Number         0  board.o ABSOLUTE
    drivers\msd.c                            0x00000000   Number         0  msd.o ABSOLUTE
    drivers\platform.c                       0x00000000   Number         0  platform.o ABSOLUTE
    drivers\rt_stm32f10x_spi.c               0x00000000   Number         0  rt_stm32f10x_spi.o ABSOLUTE
    drivers\serial.c                         0x00000000   Number         0  serial.o ABSOLUTE
    drivers\stm32_eth.c                      0x00000000   Number         0  stm32_eth.o ABSOLUTE
    drivers\stm32f10x_it.c                   0x00000000   Number         0  stm32f10x_it.o ABSOLUTE
    drivers\usart.c                          0x00000000   Number         0  usart.o ABSOLUTE
    RESET                                    0x08000000   Section      336  startup_stm32f10x_cl.o(RESET)
    !!!main                                  0x08000150   Section        8  __main.o(!!!main)
    !!!scatter                               0x08000158   Section       52  __scatter.o(!!!scatter)
    !!dczerorl2                              0x0800018c   Section       90  __dczerorl2.o(!!dczerorl2)
    !!handler_zi                             0x080001e8   Section       28  __scatter_zi.o(!!handler_zi)
    .ARM.Collect$$libinit$$00000000          0x08000204   Section        6  libinit.o(.ARM.Collect$$libinit$$00000000)
    .ARM.Collect$$libinit$$00000006          0x0800020a   Section        0  libinit2.o(.ARM.Collect$$libinit$$00000006)
    .ARM.Collect$$libinit$$00000008          0x0800020a   Section        0  libinit2.o(.ARM.Collect$$libinit$$00000008)
    .ARM.Collect$$libinit$$0000000A          0x0800020a   Section        0  libinit2.o(.ARM.Collect$$libinit$$0000000A)
    .ARM.Collect$$libinit$$0000000B          0x0800020a   Section        6  libinit2.o(.ARM.Collect$$libinit$$0000000B)
    .ARM.Collect$$libinit$$0000000D          0x08000210   Section        0  libinit2.o(.ARM.Collect$$libinit$$0000000D)
    .ARM.Collect$$libinit$$0000000E          0x08000210   Section       12  libinit2.o(.ARM.Collect$$libinit$$0000000E)
    .ARM.Collect$$libinit$$0000000F          0x0800021c   Section        0  libinit2.o(.ARM.Collect$$libinit$$0000000F)
    .ARM.Collect$$libinit$$00000011          0x0800021c   Section        0  libinit2.o(.ARM.Collect$$libinit$$00000011)
    .ARM.Collect$$libinit$$00000013          0x0800021c   Section        0  libinit2.o(.ARM.Collect$$libinit$$00000013)
    .ARM.Collect$$libinit$$00000015          0x0800021c   Section        0  libinit2.o(.ARM.Collect$$libinit$$00000015)
    .ARM.Collect$$libinit$$00000017          0x0800021c   Section        0  libinit2.o(.ARM.Collect$$libinit$$00000017)
    .ARM.Collect$$libinit$$00000019          0x0800021c   Section        0  libinit2.o(.ARM.Collect$$libinit$$00000019)
    .ARM.Collect$$libinit$$0000001B          0x0800021c   Section        0  libinit2.o(.ARM.Collect$$libinit$$0000001B)
    .ARM.Collect$$libinit$$0000001D          0x0800021c   Section        0  libinit2.o(.ARM.Collect$$libinit$$0000001D)
    .ARM.Collect$$libinit$$0000001F          0x0800021c   Section        0  libinit2.o(.ARM.Collect$$libinit$$0000001F)
    .ARM.Collect$$libinit$$00000021          0x0800021c   Section        0  libinit2.o(.ARM.Collect$$libinit$$00000021)
    .ARM.Collect$$libinit$$00000028          0x0800021c   Section        0  libinit2.o(.ARM.Collect$$libinit$$00000028)
    .ARM.Collect$$libinit$$0000002A          0x0800021c   Section        0  libinit2.o(.ARM.Collect$$libinit$$0000002A)
    .ARM.Collect$$libinit$$0000002C          0x0800021c   Section        0  libinit2.o(.ARM.Collect$$libinit$$0000002C)
    .ARM.Collect$$libinit$$0000002E          0x0800021c   Section        0  libinit2.o(.ARM.Collect$$libinit$$0000002E)
    .ARM.Collect$$libinit$$0000002F          0x0800021c   Section        2  libinit2.o(.ARM.Collect$$libinit$$0000002F)
    .ARM.Collect$$libshutdown$$00000000      0x0800021e   Section        2  libshutdown.o(.ARM.Collect$$libshutdown$$00000000)
    .ARM.Collect$$libshutdown$$00000003      0x08000220   Section        0  libshutdown2.o(.ARM.Collect$$libshutdown$$00000003)
    .ARM.Collect$$libshutdown$$00000006      0x08000220   Section        0  libshutdown2.o(.ARM.Collect$$libshutdown$$00000006)
    .ARM.Collect$$libshutdown$$00000009      0x08000220   Section        0  libshutdown2.o(.ARM.Collect$$libshutdown$$00000009)
    .ARM.Collect$$libshutdown$$0000000B      0x08000220   Section        0  libshutdown2.o(.ARM.Collect$$libshutdown$$0000000B)
    .ARM.Collect$$libshutdown$$0000000E      0x08000220   Section        0  libshutdown2.o(.ARM.Collect$$libshutdown$$0000000E)
    .ARM.Collect$$libshutdown$$0000000F      0x08000220   Section        2  libshutdown2.o(.ARM.Collect$$libshutdown$$0000000F)
    .ARM.Collect$$rtentry$$00000000          0x08000222   Section        0  rtentry.o(.ARM.Collect$$rtentry$$00000000)
    .ARM.Collect$$rtentry$$00000002          0x08000222   Section        0  rtentry2.o(.ARM.Collect$$rtentry$$00000002)
    .ARM.Collect$$rtentry$$00000004          0x08000222   Section        6  rtentry4.o(.ARM.Collect$$rtentry$$00000004)
    .ARM.Collect$$rtentry$$00000009          0x08000228   Section        0  rtentry2.o(.ARM.Collect$$rtentry$$00000009)
    .ARM.Collect$$rtentry$$0000000A          0x08000228   Section        4  rtentry2.o(.ARM.Collect$$rtentry$$0000000A)
    .ARM.Collect$$rtentry$$0000000C          0x0800022c   Section        0  rtentry2.o(.ARM.Collect$$rtentry$$0000000C)
    .ARM.Collect$$rtentry$$0000000D          0x0800022c   Section        8  rtentry2.o(.ARM.Collect$$rtentry$$0000000D)
    .ARM.Collect$$rtexit$$00000000           0x08000234   Section        2  rtexit.o(.ARM.Collect$$rtexit$$00000000)
    .ARM.Collect$$rtexit$$00000002           0x08000236   Section        0  rtexit2.o(.ARM.Collect$$rtexit$$00000002)
    .ARM.Collect$$rtexit$$00000003           0x08000236   Section        4  rtexit2.o(.ARM.Collect$$rtexit$$00000003)
    .ARM.Collect$$rtexit$$00000004           0x0800023a   Section        6  rtexit2.o(.ARM.Collect$$rtexit$$00000004)
    .text                                    0x08000240   Section        0  application.o(.text)
    .text                                    0x08000304   Section        0  startup.o(.text)
    .text                                    0x080003c0   Section        0  board.o(.text)
    .text                                    0x0800042c   Section        0  platform.o(.text)
    rt_hw_spi_init                           0x08000431   Thumb Code   110  platform.o(.text)
    .text                                    0x080004c0   Section        0  rt_stm32f10x_spi.o(.text)
    configure                                0x080004c1   Thumb Code   242  rt_stm32f10x_spi.o(.text)
    xfer                                     0x080005b3   Thumb Code   206  rt_stm32f10x_spi.o(.text)
    .text                                    0x080006ec   Section        0  serial.o(.text)
    rt_serial_init                           0x080006ed   Thumb Code   120  serial.o(.text)
    rt_serial_open                           0x08000765   Thumb Code     4  serial.o(.text)
    rt_serial_close                          0x08000769   Thumb Code     4  serial.o(.text)
    rt_serial_read                           0x0800076d   Thumb Code   116  serial.o(.text)
    rt_serial_enable_dma                     0x080007e1   Thumb Code    56  serial.o(.text)
    rt_serial_write                          0x08000819   Thumb Code   208  serial.o(.text)
    rt_serial_control                        0x080008e9   Thumb Code    74  serial.o(.text)
    .text                                    0x08000c10   Section        0  stm32_eth.o(.text)
    rt_stm32_eth_init                        0x0800249d   Thumb Code   172  stm32_eth.o(.text)
    rt_stm32_eth_open                        0x08002549   Thumb Code     4  stm32_eth.o(.text)
    rt_stm32_eth_close                       0x0800254d   Thumb Code     4  stm32_eth.o(.text)
    rt_stm32_eth_read                        0x08002551   Thumb Code    14  stm32_eth.o(.text)
    rt_stm32_eth_write                       0x0800255f   Thumb Code    14  stm32_eth.o(.text)
    rt_stm32_eth_control                     0x0800256d   Thumb Code    30  stm32_eth.o(.text)
    GPIO_Configuration                       0x080026cd   Thumb Code   220  stm32_eth.o(.text)
    .text                                    0x08002884   Section        0  stm32f10x_it.o(.text)
    .text                                    0x080028c4   Section        0  usart.o(.text)
    .text                                    0x08002a64   Section        0  system_stm32f10x.o(.text)
    SetSysClockTo72                          0x08002a65   Thumb Code   168  system_stm32f10x.o(.text)
    .text                                    0x08002c0c   Section        0  stm32f10x_rcc.o(.text)
    .text                                    0x0800353c   Section        0  stm32f10x_spi.o(.text)
    .text                                    0x08003da0   Section        0  stm32f10x_gpio.o(.text)
    .text                                    0x080046f4   Section        0  stm32f10x_usart.o(.text)
    .text                                    0x08005308   Section        0  stm32f10x_dma.o(.text)
    .text                                    0x08005b14   Section        0  misc.o(.text)
    .text                                    0x08005cb0   Section       64  startup_stm32f10x_cl.o(.text)
    .text                                    0x08005cf0   Section        0  clock.o(.text)
    .text                                    0x08005d50   Section        0  device.o(.text)
    .text                                    0x08006094   Section        0  idle.o(.text)
    rt_thread_idle_entry                     0x0800612d   Thumb Code    14  idle.o(.text)
    rt_list_isempty                          0x08006163   Thumb Code    14  idle.o(.text)
    .text                                    0x080061d4   Section        0  ipc.o(.text)
    rt_ipc_list_suspend                      0x080061d5   Thumb Code    80  ipc.o(.text)
    rt_ipc_list_resume_all                   0x08006225   Thumb Code    46  ipc.o(.text)
    rt_list_insert_before                    0x08007603   Thumb Code    14  ipc.o(.text)
    rt_list_isempty                          0x08007611   Thumb Code    14  ipc.o(.text)
    rt_ipc_list_resume                       0x0800761f   Thumb Code    14  ipc.o(.text)
    .text                                    0x08007638   Section        0  irq.o(.text)
    .text                                    0x08007670   Section        0  kservice.o(.text)
    print_number                             0x08007883   Thumb Code   302  kservice.o(.text)
    vsnprintf                                0x080079b1   Thumb Code   596  kservice.o(.text)
    skip_atoi                                0x08007d27   Thumb Code    40  kservice.o(.text)
    .text                                    0x08007dec   Section        0  mem.o(.text)
    plug_holes                               0x08007df9   Thumb Code   154  mem.o(.text)
    .text                                    0x08008540   Section        0  mempool.o(.text)
    rt_list_isempty                          0x0800886d   Thumb Code    14  mempool.o(.text)
    .text                                    0x080088dc   Section        0  object.o(.text)
    rt_list_insert_after                     0x08008af3   Thumb Code    14  object.o(.text)
    rt_list_remove                           0x08008b01   Thumb Code    18  object.o(.text)
    .text                                    0x08008ba8   Section        0  scheduler.o(.text)
    _rt_scheduler_stack_check                0x08008d47   Thumb Code    82  scheduler.o(.text)
    .text                                    0x08008e30   Section        0  thread.o(.text)
    rt_thread_exit                           0x08008e31   Thumb Code    86  thread.o(.text)
    _rt_thread_init                          0x08008ed9   Thumb Code   136  thread.o(.text)
    rt_list_insert_after                     0x080093df   Thumb Code    14  thread.o(.text)
    rt_list_remove                           0x080093ed   Thumb Code    18  thread.o(.text)
    .text                                    0x0800940c   Section        0  timer.o(.text)
    rt_list_insert_before                    0x080096e9   Thumb Code    14  timer.o(.text)
    rt_list_remove                           0x080096f7   Thumb Code    18  timer.o(.text)
    rt_list_isempty                          0x08009709   Thumb Code    14  timer.o(.text)
    _rt_timer_init                           0x08009717   Thumb Code    28  timer.o(.text)
    .text                                    0x0800979c   Section        0  cpuport.o(.text)
    .text                                    0x08009934   Section      212  context_rvds.o(.text)
    .text                                    0x08009a08   Section        0  dfs.o(.text)
    .text                                    0x08009d58   Section        0  dfs_fs.o(.text)
    .text                                    0x0800a240   Section        0  dfs_file.o(.text)
    .text                                    0x0800a7f0   Section        0  dfs_posix.o(.text)
    .text                                    0x0800ac9c   Section        0  spi_core.o(.text)
    .text                                    0x0800b248   Section        0  spi_dev.o(.text)
    _spi_bus_device_init                     0x0800b249   Thumb Code    26  spi_dev.o(.text)
    _spi_bus_device_read                     0x0800b263   Thumb Code    72  spi_dev.o(.text)
    _spi_bus_device_write                    0x0800b2ab   Thumb Code    72  spi_dev.o(.text)
    _spi_bus_device_control                  0x0800b2f3   Thumb Code    28  spi_dev.o(.text)
    _spidev_device_init                      0x0800b353   Thumb Code    28  spi_dev.o(.text)
    _spidev_device_read                      0x0800b36f   Thumb Code    72  spi_dev.o(.text)
    _spidev_device_write                     0x0800b3b7   Thumb Code    72  spi_dev.o(.text)
    _spidev_device_control                   0x0800b3ff   Thumb Code    28  spi_dev.o(.text)
    .text                                    0x0800b508   Section        0  cmd.o(.text)
    _list_thread                             0x0800b51f   Thumb Code   128  cmd.o(.text)
    _list_mempool                            0x0800b5cb   Thumb Code    84  cmd.o(.text)
    show_wait_queue                          0x0800b841   Thumb Code    38  cmd.o(.text)
    _list_sem                                0x0800b867   Thumb Code   100  cmd.o(.text)
    _list_event                              0x0800b8cb   Thumb Code   688  cmd.o(.text)
    _list_mutex                              0x0800bb7b   Thumb Code    64  cmd.o(.text)
    _list_mailbox                            0x0800bbbb   Thumb Code   112  cmd.o(.text)
    _list_msgqueue                           0x0800bc2b   Thumb Code   100  cmd.o(.text)
    _list_timer                              0x0800bc8f   Thumb Code    78  cmd.o(.text)
    _list_device                             0x0800bcdd   Thumb Code    72  cmd.o(.text)
    str_is_prefix                            0x0800bd25   Thumb Code    26  cmd.o(.text)
    str_common                               0x0800bd3f   Thumb Code    26  cmd.o(.text)
    rt_list_isempty                          0x0800bd59   Thumb Code    14  cmd.o(.text)
    rt_list_len                              0x0800bd67   Thumb Code    18  cmd.o(.text)
    .text                                    0x0800bfd0   Section        0  finsh_compiler.o(.text)
    finsh_compile                            0x0800bfd1   Thumb Code  1616  finsh_compiler.o(.text)
    finsh_type_check                         0x0800c621   Thumb Code   220  finsh_compiler.o(.text)
    .text                                    0x0800c74c   Section        0  finsh_error.o(.text)
    .text                                    0x0800c770   Section        0  finsh_heap.o(.text)
    finsh_block_insert                       0x0800c78f   Thumb Code    32  finsh_heap.o(.text)
    finsh_block_remove                       0x0800c87b   Thumb Code    36  finsh_heap.o(.text)
    finsh_block_merge                        0x0800c89f   Thumb Code   108  finsh_heap.o(.text)
    .text                                    0x0800c918   Section        0  finsh_init.o(.text)
    .text                                    0x0800c964   Section        0  finsh_node.o(.text)
    .text                                    0x0800cab0   Section        0  finsh_ops.o(.text)
    .text                                    0x0800cf90   Section        0  finsh_parser.o(.text)
    proc_unary_expr                          0x0800cf91   Thumb Code   154  finsh_parser.o(.text)
    proc_type                                0x0800d02b   Thumb Code   210  finsh_parser.o(.text)
    proc_cast_expr                           0x0800d0fd   Thumb Code    64  finsh_parser.o(.text)
    proc_multiplicative_expr                 0x0800d13d   Thumb Code    90  finsh_parser.o(.text)
    proc_additive_expr                       0x0800d197   Thumb Code    76  finsh_parser.o(.text)
    proc_shift_expr                          0x0800d1e3   Thumb Code    76  finsh_parser.o(.text)
    proc_and_expr                            0x0800d22f   Thumb Code    56  finsh_parser.o(.text)
    proc_exclusive_or_expr                   0x0800d267   Thumb Code    56  finsh_parser.o(.text)
    proc_assign_expr                         0x0800d29f   Thumb Code    88  finsh_parser.o(.text)
    proc_variable_decl                       0x0800d2f7   Thumb Code   388  finsh_parser.o(.text)
    proc_expr_statement                      0x0800d47b   Thumb Code    50  finsh_parser.o(.text)
    make_sys_node                            0x0800d553   Thumb Code    32  finsh_parser.o(.text)
    proc_expr                                0x0800d573   Thumb Code     2  finsh_parser.o(.text)
    proc_identifier                          0x0800d575   Thumb Code    42  finsh_parser.o(.text)
    proc_postfix_expr                        0x0800d59f   Thumb Code   172  finsh_parser.o(.text)
    proc_primary_expr                        0x0800d64b   Thumb Code   168  finsh_parser.o(.text)
    .text                                    0x0800d6f4   Section        0  finsh_token.o(.text)
    token_next_char                          0x0800d707   Thumb Code    56  finsh_token.o(.text)
    token_proc_number                        0x0800d73f   Thumb Code   218  finsh_token.o(.text)
    token_run                                0x0800d87d   Thumb Code   430  finsh_token.o(.text)
    token_prev_char                          0x0800da51   Thumb Code    18  finsh_token.o(.text)
    token_spec_number                        0x0800da63   Thumb Code   112  finsh_token.o(.text)
    token_proc_escape                        0x0800dad3   Thumb Code   134  finsh_token.o(.text)
    token_proc_char                          0x0800db59   Thumb Code   142  finsh_token.o(.text)
    .text                                    0x0800dbec   Section        0  finsh_var.o(.text)
    .text                                    0x0800dd4c   Section        0  finsh_vm.o(.text)
    .text                                    0x0800ddfc   Section        0  shell.o(.text)
    finsh_rx_ind                             0x0800de53   Thumb Code    38  shell.o(.text)
    .text                                    0x0800e444   Section        0  components.o(.text)
    rti_start                                0x0800e445   Thumb Code     4  components.o(.text)
    rti_board_end                            0x0800e449   Thumb Code     4  components.o(.text)
    rti_end                                  0x0800e44d   Thumb Code     4  components.o(.text)
    .text                                    0x0800e484   Section        0  api_lib.o(.text)
    netconn_recv_data                        0x0800e761   Thumb Code   892  api_lib.o(.text)
    netconn_close_shutdown                   0x0800eccf   Thumb Code    74  api_lib.o(.text)
    .text                                    0x0800ee88   Section        0  api_msg.o(.text)
    recv_raw                                 0x0800ee89   Thumb Code   118  api_msg.o(.text)
    recv_udp                                 0x0800eeff   Thumb Code   166  api_msg.o(.text)
    recv_tcp                                 0x0800efa5   Thumb Code   162  api_msg.o(.text)
    err_tcp                                  0x0800f047   Thumb Code   218  api_msg.o(.text)
    do_writemore                             0x0800f121   Thumb Code   856  api_msg.o(.text)
    sent_tcp                                 0x0800f479   Thumb Code   106  api_msg.o(.text)
    do_close_internal                        0x0800f4e3   Thumb Code   376  api_msg.o(.text)
    poll_tcp                                 0x0800f65b   Thumb Code   106  api_msg.o(.text)
    setup_tcp                                0x0800f6c5   Thumb Code    50  api_msg.o(.text)
    accept_function                          0x0800f7f7   Thumb Code   108  api_msg.o(.text)
    pcb_new                                  0x0800f863   Thumb Code   558  api_msg.o(.text)
    netconn_drain                            0x0800fab1   Thumb Code   178  api_msg.o(.text)
    do_connected                             0x0800fc99   Thumb Code   164  api_msg.o(.text)
    do_dns_found                             0x08010221   Thumb Code    68  api_msg.o(.text)
    .text                                    0x080102dc   Section        0  netbuf.o(.text)
    .text                                    0x080105e0   Section        0  netifapi.o(.text)
    .text                                    0x080106ac   Section        0  sockets.o(.text)
    get_socket                               0x080106af   Thumb Code    34  sockets.o(.text)
    alloc_socket                             0x080106d1   Thumb Code    94  sockets.o(.text)
    event_callback                           0x0801072f   Thumb Code   304  sockets.o(.text)
    lwip_selscan                             0x0801112d   Thumb Code   274  sockets.o(.text)
    lwip_getaddrname                         0x0801160b   Thumb Code   114  sockets.o(.text)
    lwip_getsockopt_internal                 0x08011685   Thumb Code   328  sockets.o(.text)
    lwip_setsockopt_internal                 0x0801193b   Thumb Code   276  sockets.o(.text)
    tryget_socket                            0x08011bd3   Thumb Code    26  sockets.o(.text)
    .text                                    0x08011bf8   Section        0  tcpip.o(.text)
    tcpip_thread                             0x08011bf9   Thumb Code   126  tcpip.o(.text)
    pbuf_free_int                            0x08011e61   Thumb Code     4  tcpip.o(.text)
    .text                                    0x08011f00   Section        0  sys_arch.o(.text)
    netif_device_init                        0x08011f01   Thumb Code    36  sys_arch.o(.text)
    tcpip_init_done_callback                 0x08011f51   Thumb Code   140  sys_arch.o(.text)
    .text                                    0x080125e8   Section        0  def.o(.text)
    .text                                    0x080125f8   Section        0  dhcp.o(.text)
    dhcp_delete_msg                          0x080125f9   Thumb Code    84  dhcp.o(.text)
    dhcp_option_trailer                      0x0801264d   Thumb Code   138  dhcp.o(.text)
    dhcp_option_byte                         0x080126d7   Thumb Code    44  dhcp.o(.text)
    dhcp_option                              0x08012703   Thumb Code    64  dhcp.o(.text)
    dhcp_option_short                        0x08012743   Thumb Code    64  dhcp.o(.text)
    dhcp_create_msg                          0x08012783   Thumb Code   382  dhcp.o(.text)
    dhcp_discover                            0x08012901   Thumb Code   764  dhcp.o(.text)
    dhcp_option_long                         0x08012bfd   Thumb Code    96  dhcp.o(.text)
    dhcp_select                              0x08012c5d   Thumb Code   220  dhcp.o(.text)
    dhcp_rebind                              0x08012dbb   Thumb Code   128  dhcp.o(.text)
    dhcp_reboot                              0x08012e95   Thumb Code   154  dhcp.o(.text)
    dhcp_handle_ack                          0x08013049   Thumb Code   126  dhcp.o(.text)
    dhcp_bind                                0x08013199   Thumb Code   214  dhcp.o(.text)
    dhcp_parse_reply                         0x0801326f   Thumb Code  1068  dhcp.o(.text)
    dhcp_recv                                0x0801369b   Thumb Code   286  dhcp.o(.text)
    dhcp_set_state                           0x0801397f   Thumb Code    16  dhcp.o(.text)
    dhcp_timeout                             0x0801398f   Thumb Code   190  dhcp.o(.text)
    .text                                    0x08013a4c   Section        0  dns.o(.text)
    dns_recv                                 0x08013a6d   Thumb Code   344  dns.o(.text)
    dns_send                                 0x08013c19   Thumb Code   246  dns.o(.text)
    dns_check_entry                          0x08013d0f   Thumb Code   216  dns.o(.text)
    dns_parse_name                           0x08013f79   Thumb Code    34  dns.o(.text)
    dns_enqueue                              0x08013f9b   Thumb Code   168  dns.o(.text)
    .text                                    0x0801404c   Section        0  init.o(.text)
    .text                                    0x08014070   Section        0  netif.o(.text)
    .text                                    0x080142ac   Section        0  pbuf.o(.text)
    pbuf_free_ooseq                          0x080142ad   Thumb Code    42  pbuf.o(.text)
    pbuf_pool_is_empty                       0x080142d7   Thumb Code    54  pbuf.o(.text)
    .text                                    0x08014f60   Section        0  raw.o(.text)
    .text                                    0x08015134   Section        0  tcp.o(.text)
    tcp_close_shutdown                       0x08015521   Thumb Code   762  tcp.o(.text)
    tcp_new_port                             0x08015a6f   Thumb Code    62  tcp.o(.text)
    tcp_accept_null                          0x08015bf1   Thumb Code     6  tcp.o(.text)
    .text                                    0x08015f50   Section        0  tcp_in.o(.text)
    tcp_oos_insert_segment                   0x08015f51   Thumb Code   114  tcp_in.o(.text)
    tcp_receive                              0x08015fc3   Thumb Code  2324  tcp_in.o(.text)
    tcp_parseopt                             0x080168d7   Thumb Code   322  tcp_in.o(.text)
    tcp_process                              0x08016a19   Thumb Code   878  tcp_in.o(.text)
    tcp_listen_input                         0x08016d87   Thumb Code   304  tcp_in.o(.text)
    tcp_timewait_input                       0x08017293   Thumb Code   418  tcp_in.o(.text)
    .text                                    0x08017434   Section        0  tcp_out.o(.text)
    tcp_output_alloc_header                  0x08017435   Thumb Code   130  tcp_out.o(.text)
    tcp_create_segment                       0x080174b7   Thumb Code   160  tcp_out.o(.text)
    tcp_pbuf_prealloc                        0x080176bf   Thumb Code   106  tcp_out.o(.text)
    tcp_write_checks                         0x08017729   Thumb Code   118  tcp_out.o(.text)
    tcp_output_segment                       0x08017da1   Thumb Code   534  tcp_out.o(.text)
    .text                                    0x080183d4   Section        0  timers.o(.text)
    tcpip_tcp_timer                          0x0801843f   Thumb Code    38  timers.o(.text)
    arp_timer                                0x08018487   Thumb Code    20  timers.o(.text)
    dhcp_timer_coarse                        0x0801849b   Thumb Code    20  timers.o(.text)
    dhcp_timer_fine                          0x080184af   Thumb Code    20  timers.o(.text)
    dns_timer                                0x080184c3   Thumb Code    20  timers.o(.text)
    .text                                    0x0801863c   Section        0  udp.o(.text)
    .text                                    0x08018a90   Section        0  icmp.o(.text)
    icmp_send_response                       0x08018bf5   Thumb Code   122  icmp.o(.text)
    .text                                    0x08018dc0   Section        0  inet_chksum.o(.text)
    lwip_standard_chksum                     0x08018dc1   Thumb Code    86  inet_chksum.o(.text)
    .text                                    0x08018fe8   Section        0  ip.o(.text)
    .text                                    0x08019300   Section        0  ip_addr.o(.text)
    .text                                    0x08019534   Section        0  etharp.o(.text)
    free_etharp_q                            0x08019535   Thumb Code    82  etharp.o(.text)
    free_entry                               0x08019587   Thumb Code    40  etharp.o(.text)
    find_entry                               0x080195e1   Thumb Code   334  etharp.o(.text)
    etharp_send_ip                           0x0801972f   Thumb Code    74  etharp.o(.text)
    update_arp_entry                         0x08019779   Thumb Code   144  etharp.o(.text)
    etharp_arp_input                         0x0801984f   Thumb Code   598  etharp.o(.text)
    etharp_raw                               0x08019aa5   Thumb Code   212  etharp.o(.text)
    .text                                    0x08019eac   Section        0  ethernetif.o(.text)
    ethernetif_linkoutput                    0x08019ead   Thumb Code    34  ethernetif.o(.text)
    eth_netif_device_init                    0x08019ecf   Thumb Code    74  ethernetif.o(.text)
    eth_tx_thread_entry                      0x0801a017   Thumb Code   110  ethernetif.o(.text)
    eth_rx_thread_entry                      0x0801a085   Thumb Code   118  ethernetif.o(.text)
    .text                                    0x0801a7c0   Section        0  atoi.o(.text)
    .text                                    0x0801a7da   Section        0  strtol.o(.text)
    .text                                    0x0801a84a   Section        0  strcpy.o(.text)
    .text                                    0x0801a892   Section        0  strlen.o(.text)
    .text                                    0x0801a8d0   Section        0  strncmp.o(.text)
    .text                                    0x0801a966   Section        0  strcat.o(.text)
    .text                                    0x0801a97e   Section      138  rt_memcpy_v6.o(.text)
    .text                                    0x0801aa08   Section      100  rt_memcpy_w.o(.text)
    .text                                    0x0801aa6c   Section       68  rt_memclr.o(.text)
    .text                                    0x0801aab0   Section       78  rt_memclr_w.o(.text)
    .text                                    0x0801aafe   Section       86  strncpy.o(.text)
    .text                                    0x0801ab54   Section        0  heapauxi.o(.text)
    .text                                    0x0801ab5a   Section        2  use_no_semi.o(.text)
    .text                                    0x0801ab5c   Section       16  rt_ctype_table.o(.text)
    .text                                    0x0801ab5c   Section        0  indicate_semi.o(.text)
    .text                                    0x0801ab6c   Section        8  rt_locale_intlibspace.o(.text)
    .text                                    0x0801ab74   Section        8  rt_errno_addr_intlibspace.o(.text)
    .text                                    0x0801ab7c   Section        0  _chval.o(.text)
    .text                                    0x0801ab98   Section        0  _strtoul.o(.text)
    .text                                    0x0801ac38   Section        8  libspace.o(.text)
    .text                                    0x0801ac40   Section       74  sys_stackheap_outer.o(.text)
    .text                                    0x0801ac8a   Section        0  exit.o(.text)
    .text                                    0x0801ac98   Section        0  sys_exit.o(.text)
    .text                                    0x0801aca4   Section        8  rt_fp_status_addr_intlibspace.o(.text)
    locale$$code                             0x0801acac   Section       44  lc_ctype_c.o(locale$$code)
    x$fpl$fpinit                             0x0801acd8   Section       14  fpinit.o(x$fpl$fpinit)
    .constdata                               0x0801ace6   Section      133  serial.o(.constdata)
    __FUNCTION__                             0x0801ace6   Data          15  serial.o(.constdata)
    __FUNCTION__                             0x0801acf5   Data          21  serial.o(.constdata)
    __FUNCTION__                             0x0801ad0a   Data          16  serial.o(.constdata)
    __FUNCTION__                             0x0801ad1a   Data          18  serial.o(.constdata)
    __FUNCTION__                             0x0801ad2c   Data          22  serial.o(.constdata)
    __FUNCTION__                             0x0801ad42   Data          17  serial.o(.constdata)
    __FUNCTION__                             0x0801ad53   Data          24  serial.o(.constdata)
    .constdata                               0x0801ad6b   Section      168  device.o(.constdata)
    __FUNCTION__                             0x0801ad6b   Data          21  device.o(.constdata)
    __FUNCTION__                             0x0801ad80   Data          15  device.o(.constdata)
    __FUNCTION__                             0x0801ad8f   Data          15  device.o(.constdata)
    __FUNCTION__                             0x0801ad9e   Data          16  device.o(.constdata)
    __FUNCTION__                             0x0801adae   Data          15  device.o(.constdata)
    __FUNCTION__                             0x0801adbd   Data          16  device.o(.constdata)
    __FUNCTION__                             0x0801adcd   Data          18  device.o(.constdata)
    __FUNCTION__                             0x0801addf   Data          26  device.o(.constdata)
    __FUNCTION__                             0x0801adf9   Data          26  device.o(.constdata)
    .constdata                               0x0801ae13   Section       22  idle.o(.constdata)
    __FUNCTION__                             0x0801ae13   Data          22  idle.o(.constdata)
    .constdata                               0x0801ae29   Section      454  ipc.o(.constdata)
    __FUNCTION__                             0x0801ae29   Data          12  ipc.o(.constdata)
    __FUNCTION__                             0x0801ae35   Data          14  ipc.o(.constdata)
    __FUNCTION__                             0x0801ae43   Data          14  ipc.o(.constdata)
    __FUNCTION__                             0x0801ae51   Data          14  ipc.o(.constdata)
    __FUNCTION__                             0x0801ae5f   Data          12  ipc.o(.constdata)
    __FUNCTION__                             0x0801ae6b   Data          15  ipc.o(.constdata)
    __FUNCTION__                             0x0801ae7a   Data          14  ipc.o(.constdata)
    __FUNCTION__                             0x0801ae88   Data          16  ipc.o(.constdata)
    __FUNCTION__                             0x0801ae98   Data          16  ipc.o(.constdata)
    __FUNCTION__                             0x0801aea8   Data          16  ipc.o(.constdata)
    __FUNCTION__                             0x0801aeb8   Data          14  ipc.o(.constdata)
    __FUNCTION__                             0x0801aec6   Data          14  ipc.o(.constdata)
    __FUNCTION__                             0x0801aed4   Data          16  ipc.o(.constdata)
    __FUNCTION__                             0x0801aee4   Data          16  ipc.o(.constdata)
    __FUNCTION__                             0x0801aef4   Data          16  ipc.o(.constdata)
    __FUNCTION__                             0x0801af04   Data          14  ipc.o(.constdata)
    __FUNCTION__                             0x0801af12   Data          14  ipc.o(.constdata)
    __FUNCTION__                             0x0801af20   Data          17  ipc.o(.constdata)
    __FUNCTION__                             0x0801af31   Data          11  ipc.o(.constdata)
    __FUNCTION__                             0x0801af3c   Data          13  ipc.o(.constdata)
    __FUNCTION__                             0x0801af49   Data          13  ipc.o(.constdata)
    __FUNCTION__                             0x0801af56   Data          13  ipc.o(.constdata)
    __FUNCTION__                             0x0801af63   Data          16  ipc.o(.constdata)
    __FUNCTION__                             0x0801af73   Data          11  ipc.o(.constdata)
    __FUNCTION__                             0x0801af7e   Data          14  ipc.o(.constdata)
    __FUNCTION__                             0x0801af8c   Data          11  ipc.o(.constdata)
    __FUNCTION__                             0x0801af97   Data          13  ipc.o(.constdata)
    __FUNCTION__                             0x0801afa4   Data          13  ipc.o(.constdata)
    __FUNCTION__                             0x0801afb1   Data          13  ipc.o(.constdata)
    __FUNCTION__                             0x0801afbe   Data          11  ipc.o(.constdata)
    __FUNCTION__                             0x0801afc9   Data          13  ipc.o(.constdata)
    __FUNCTION__                             0x0801afd6   Data          11  ipc.o(.constdata)
    __FUNCTION__                             0x0801afe1   Data          14  ipc.o(.constdata)
    .constdata                               0x0801afef   Section      290  kservice.o(.constdata)
    small_digits                             0x0801b0ef   Data          17  kservice.o(.constdata)
    large_digits                             0x0801b100   Data          17  kservice.o(.constdata)
    .constdata                               0x0801b111   Section        9  mem.o(.constdata)
    .constdata                               0x0801b11a   Section       30  mem.o(.constdata)
    .constdata                               0x0801b138   Section      312  mem.o(.constdata)
    __FUNCTION__                             0x0801b138   Data           8  mem.o(.constdata)
    __FUNCTION__                             0x0801b140   Data          11  mem.o(.constdata)
    __FUNCTION__                             0x0801b14b   Data          20  mem.o(.constdata)
    __FUNCTION__                             0x0801b15f   Data          10  mem.o(.constdata)
    __FUNCTION__                             0x0801b169   Data          11  mem.o(.constdata)
    __FUNCTION__                             0x0801b174   Data          10  mem.o(.constdata)
    .constdata                               0x0801b270   Section       62  mempool.o(.constdata)
    __FUNCTION__                             0x0801b270   Data          11  mempool.o(.constdata)
    __FUNCTION__                             0x0801b27b   Data          13  mempool.o(.constdata)
    __FUNCTION__                             0x0801b288   Data          13  mempool.o(.constdata)
    __FUNCTION__                             0x0801b295   Data          13  mempool.o(.constdata)
    __FUNCTION__                             0x0801b2a2   Data          12  mempool.o(.constdata)
    .constdata                               0x0801b2ae   Section       94  object.o(.constdata)
    __FUNCTION__                             0x0801b2ae   Data          17  object.o(.constdata)
    __FUNCTION__                             0x0801b2bf   Data          19  object.o(.constdata)
    __FUNCTION__                             0x0801b2d2   Data          17  object.o(.constdata)
    __FUNCTION__                             0x0801b2e3   Data          26  object.o(.constdata)
    __FUNCTION__                             0x0801b2fd   Data          15  object.o(.constdata)
    .constdata                               0x0801b30c   Section       78  scheduler.o(.constdata)
    __FUNCTION__                             0x0801b30c   Data          26  scheduler.o(.constdata)
    __FUNCTION__                             0x0801b326   Data          26  scheduler.o(.constdata)
    __FUNCTION__                             0x0801b340   Data          26  scheduler.o(.constdata)
    .constdata                               0x0801b35a   Section      170  thread.o(.constdata)
    __FUNCTION__                             0x0801b35a   Data          16  thread.o(.constdata)
    __FUNCTION__                             0x0801b36a   Data          15  thread.o(.constdata)
    __FUNCTION__                             0x0801b379   Data          18  thread.o(.constdata)
    __FUNCTION__                             0x0801b38b   Data          17  thread.o(.constdata)
    __FUNCTION__                             0x0801b39c   Data          17  thread.o(.constdata)
    __FUNCTION__                             0x0801b3ad   Data          16  thread.o(.constdata)
    __FUNCTION__                             0x0801b3bd   Data          18  thread.o(.constdata)
    __FUNCTION__                             0x0801b3cf   Data          18  thread.o(.constdata)
    __FUNCTION__                             0x0801b3e1   Data          17  thread.o(.constdata)
    __FUNCTION__                             0x0801b3f2   Data          18  thread.o(.constdata)
    .constdata                               0x0801b404   Section       92  timer.o(.constdata)
    __FUNCTION__                             0x0801b404   Data          14  timer.o(.constdata)
    __FUNCTION__                             0x0801b412   Data          16  timer.o(.constdata)
    __FUNCTION__                             0x0801b422   Data          16  timer.o(.constdata)
    __FUNCTION__                             0x0801b432   Data          15  timer.o(.constdata)
    __FUNCTION__                             0x0801b441   Data          14  timer.o(.constdata)
    __FUNCTION__                             0x0801b44f   Data          17  timer.o(.constdata)
    .constdata                               0x0801b460   Section       19  cpuport.o(.constdata)
    __FUNCTION__                             0x0801b460   Data          19  cpuport.o(.constdata)
    .constdata                               0x0801b473   Section       35  dfs.o(.constdata)
    __FUNCTION__                             0x0801b473   Data           7  dfs.o(.constdata)
    __FUNCTION__                             0x0801b47a   Data           9  dfs.o(.constdata)
    __FUNCTION__                             0x0801b483   Data          19  dfs.o(.constdata)
    .constdata                               0x0801b496   Section        5  dfs_fs.o(.constdata)
    .constdata                               0x0801b49b   Section       19  dfs_fs.o(.constdata)
    .constdata                               0x0801b4ae   Section        3  dfs_fs.o(.constdata)
    .constdata                               0x0801b4b1   Section       14  dfs_fs.o(.constdata)
    .constdata                               0x0801b4bf   Section       29  dfs_fs.o(.constdata)
    __FUNCTION__                             0x0801b4bf   Data          29  dfs_fs.o(.constdata)
    .constdata                               0x0801b4dc   Section        3  dfs_file.o(.constdata)
    .constdata                               0x0801b4df   Section       24  dfs_file.o(.constdata)
    .constdata                               0x0801b4f7   Section        3  dfs_file.o(.constdata)
    .constdata                               0x0801b4fa   Section       28  dfs_file.o(.constdata)
    .constdata                               0x0801b516   Section        4  dfs_file.o(.constdata)
    .constdata                               0x0801b51a   Section       11  dfs_file.o(.constdata)
    .constdata                               0x0801b525   Section        5  dfs_file.o(.constdata)
    .constdata                               0x0801b52a   Section       37  dfs_file.o(.constdata)
    .constdata                               0x0801b54f   Section        6  dfs_posix.o(.constdata)
    .constdata                               0x0801b555   Section       19  dfs_posix.o(.constdata)
    .constdata                               0x0801b568   Section        3  dfs_posix.o(.constdata)
    .constdata                               0x0801b56b   Section       33  dfs_posix.o(.constdata)
    .constdata                               0x0801b58c   Section      163  spi_core.o(.constdata)
    __FUNCTION__                             0x0801b58c   Data          17  spi_core.o(.constdata)
    __FUNCTION__                             0x0801b59d   Data          22  spi_core.o(.constdata)
    __FUNCTION__                             0x0801b5b3   Data          22  spi_core.o(.constdata)
    __FUNCTION__                             0x0801b5c9   Data          16  spi_core.o(.constdata)
    __FUNCTION__                             0x0801b5d9   Data          24  spi_core.o(.constdata)
    __FUNCTION__                             0x0801b5f1   Data          16  spi_core.o(.constdata)
    __FUNCTION__                             0x0801b601   Data          19  spi_core.o(.constdata)
    __FUNCTION__                             0x0801b614   Data          12  spi_core.o(.constdata)
    __FUNCTION__                             0x0801b620   Data          15  spi_core.o(.constdata)
    .constdata                               0x0801b62f   Section      217  spi_dev.o(.constdata)
    __FUNCTION__                             0x0801b62f   Data          21  spi_dev.o(.constdata)
    __FUNCTION__                             0x0801b644   Data          21  spi_dev.o(.constdata)
    __FUNCTION__                             0x0801b659   Data          22  spi_dev.o(.constdata)
    __FUNCTION__                             0x0801b66f   Data          24  spi_dev.o(.constdata)
    __FUNCTION__                             0x0801b687   Data          23  spi_dev.o(.constdata)
    __FUNCTION__                             0x0801b69e   Data          20  spi_dev.o(.constdata)
    __FUNCTION__                             0x0801b6b2   Data          20  spi_dev.o(.constdata)
    __FUNCTION__                             0x0801b6c6   Data          21  spi_dev.o(.constdata)
    __FUNCTION__                             0x0801b6db   Data          23  spi_dev.o(.constdata)
    __FUNCTION__                             0x0801b6f2   Data          22  spi_dev.o(.constdata)
    .constdata                               0x0801b708   Section        6  cmd.o(.constdata)
    .constdata                               0x0801b70e   Section       16  cmd.o(.constdata)
    .constdata                               0x0801b71e   Section        8  cmd.o(.constdata)
    .constdata                               0x0801b726   Section       35  cmd.o(.constdata)
    .constdata                               0x0801b749   Section       12  cmd.o(.constdata)
    .constdata                               0x0801b755   Section       12  cmd.o(.constdata)
    .constdata                               0x0801b761   Section        9  cmd.o(.constdata)
    .constdata                               0x0801b76a   Section       25  cmd.o(.constdata)
    .constdata                               0x0801b783   Section       11  cmd.o(.constdata)
    .constdata                               0x0801b78e   Section       21  cmd.o(.constdata)
    .constdata                               0x0801b7a3   Section       11  cmd.o(.constdata)
    .constdata                               0x0801b7ae   Section       21  cmd.o(.constdata)
    .constdata                               0x0801b7c3   Section       13  cmd.o(.constdata)
    .constdata                               0x0801b7d0   Section       24  cmd.o(.constdata)
    .constdata                               0x0801b7e8   Section       14  cmd.o(.constdata)
    .constdata                               0x0801b7f6   Section       29  cmd.o(.constdata)
    .constdata                               0x0801b813   Section       13  cmd.o(.constdata)
    .constdata                               0x0801b820   Section       27  cmd.o(.constdata)
    .constdata                               0x0801b83b   Section       11  cmd.o(.constdata)
    .constdata                               0x0801b846   Section       21  cmd.o(.constdata)
    .constdata                               0x0801b85b   Section       12  cmd.o(.constdata)
    .constdata                               0x0801b867   Section       22  cmd.o(.constdata)
    .constdata                               0x0801b87d   Section        5  cmd.o(.constdata)
    .constdata                               0x0801b882   Section       26  cmd.o(.constdata)
    .constdata                               0x0801b89c   Section        6  cmd.o(.constdata)
    .constdata                               0x0801b8a2   Section       25  cmd.o(.constdata)
    .constdata                               0x0801b8bc   Section      215  cmd.o(.constdata)
    .constdata                               0x0801b994   Section      196  finsh_ops.o(.constdata)
    .constdata                               0x0801ba58   Section       64  finsh_token.o(.constdata)
    finsh_name_table                         0x0801ba58   Data          64  finsh_token.o(.constdata)
    .constdata                               0x0801ba98   Section       77  shell.o(.constdata)
    __FUNCTION__                             0x0801ba98   Data          13  shell.o(.constdata)
    __FUNCTION__                             0x0801baa5   Data          17  shell.o(.constdata)
    __FUNCTION__                             0x0801bab6   Data          17  shell.o(.constdata)
    __FUNCTION__                             0x0801bac7   Data          15  shell.o(.constdata)
    __FUNCTION__                             0x0801bad6   Data          15  shell.o(.constdata)
    .constdata                               0x0801bae8   Section       64  sockets.o(.constdata)
    err_to_errno_table                       0x0801bae8   Data          64  sockets.o(.constdata)
    .constdata                               0x0801bb28   Section      179  sys_arch.o(.constdata)
    __FUNCTION__                             0x0801bb28   Data          12  sys_arch.o(.constdata)
    __FUNCTION__                             0x0801bb34   Data          13  sys_arch.o(.constdata)
    __FUNCTION__                             0x0801bb41   Data          18  sys_arch.o(.constdata)
    __FUNCTION__                             0x0801bb53   Data          14  sys_arch.o(.constdata)
    __FUNCTION__                             0x0801bb61   Data          15  sys_arch.o(.constdata)
    __FUNCTION__                             0x0801bb70   Data          15  sys_arch.o(.constdata)
    __FUNCTION__                             0x0801bb7f   Data          13  sys_arch.o(.constdata)
    __FUNCTION__                             0x0801bb8c   Data          14  sys_arch.o(.constdata)
    __FUNCTION__                             0x0801bb9a   Data          14  sys_arch.o(.constdata)
    __FUNCTION__                             0x0801bba8   Data          20  sys_arch.o(.constdata)
    __FUNCTION__                             0x0801bbbc   Data          15  sys_arch.o(.constdata)
    __FUNCTION__                             0x0801bbcb   Data          16  sys_arch.o(.constdata)
    .constdata                               0x0801bbdc   Section      137  dhcp.o(.constdata)
    .constdata                               0x0801bc68   Section       92  init.o(.constdata)
    .constdata                               0x0801bcc4   Section       28  memp.o(.constdata)
    .constdata                               0x0801bce0   Section       84  tcp.o(.constdata)
    .constdata                               0x0801bd34   Section       85  tcp_out.o(.constdata)
    .constdata                               0x0801bd8c   Section        4  ip_addr.o(.constdata)
    .constdata                               0x0801bd90   Section        4  ip_addr.o(.constdata)
    .constdata                               0x0801bd94   Section       80  etharp.o(.constdata)
    .constdata                               0x0801bde4   Section        7  ethernetif.o(.constdata)
    .constdata                               0x0801bdeb   Section       30  ethernetif.o(.constdata)
    .constdata                               0x0801be09   Section        8  ethernetif.o(.constdata)
    .constdata                               0x0801be11   Section       23  ethernetif.o(.constdata)
    .constdata                               0x0801be28   Section        8  ethernetif.o(.constdata)
    .constdata                               0x0801be30   Section       35  ethernetif.o(.constdata)
    .constdata                               0x0801be53   Section       10  ethernetif.o(.constdata)
    .constdata                               0x0801be5d   Section       28  ethernetif.o(.constdata)
    .constdata                               0x0801be79   Section       65  ethernetif.o(.constdata)
    __FUNCTION__                             0x0801be79   Data          22  ethernetif.o(.constdata)
    __FUNCTION__                             0x0801be8f   Data          20  ethernetif.o(.constdata)
    __FUNCTION__                             0x0801bea3   Data          23  ethernetif.o(.constdata)
    .conststring                             0x0801beba   Section      214  cmd.o(.conststring)
    .conststring                             0x0801bf90   Section      216  finsh_error.o(.conststring)
    .conststring                             0x0801c068   Section       44  finsh_token.o(.conststring)
    .conststring                             0x0801c094   Section      104  tcp.o(.conststring)
    .rti_fn.0                                0x0801c0fc   Section        4  components.o(.rti_fn.0)
    .rti_fn.1.post                           0x0801c100   Section        4  components.o(.rti_fn.1.post)
    .rti_fn.7                                0x0801c104   Section        4  components.o(.rti_fn.7)
    FSymTab                                  0x0801c108   Section       12  mem.o(FSymTab)
    FSymTab                                  0x0801c114   Section       12  dfs_fs.o(FSymTab)
    FSymTab                                  0x0801c120   Section       12  dfs_fs.o(FSymTab)
    FSymTab                                  0x0801c12c   Section       12  dfs_file.o(FSymTab)
    FSymTab                                  0x0801c138   Section       12  dfs_file.o(FSymTab)
    FSymTab                                  0x0801c144   Section       12  dfs_file.o(FSymTab)
    FSymTab                                  0x0801c150   Section       12  dfs_file.o(FSymTab)
    FSymTab                                  0x0801c15c   Section       12  dfs_posix.o(FSymTab)
    FSymTab                                  0x0801c168   Section       12  dfs_posix.o(FSymTab)
    FSymTab                                  0x0801c174   Section       12  cmd.o(FSymTab)
    FSymTab                                  0x0801c180   Section       12  cmd.o(FSymTab)
    FSymTab                                  0x0801c18c   Section       12  cmd.o(FSymTab)
    FSymTab                                  0x0801c198   Section       12  cmd.o(FSymTab)
    FSymTab                                  0x0801c1a4   Section       12  cmd.o(FSymTab)
    FSymTab                                  0x0801c1b0   Section       12  cmd.o(FSymTab)
    FSymTab                                  0x0801c1bc   Section       12  cmd.o(FSymTab)
    FSymTab                                  0x0801c1c8   Section       12  cmd.o(FSymTab)
    FSymTab                                  0x0801c1d4   Section       12  cmd.o(FSymTab)
    FSymTab                                  0x0801c1e0   Section       12  cmd.o(FSymTab)
    FSymTab                                  0x0801c1ec   Section       12  cmd.o(FSymTab)
    FSymTab                                  0x0801c1f8   Section       12  cmd.o(FSymTab)
    FSymTab                                  0x0801c204   Section       12  ethernetif.o(FSymTab)
    FSymTab                                  0x0801c210   Section       12  ethernetif.o(FSymTab)
    FSymTab                                  0x0801c21c   Section       12  ethernetif.o(FSymTab)
    FSymTab                                  0x0801c228   Section       12  ethernetif.o(FSymTab)
    VSymTab                                  0x0801c254   Section       16  cmd.o(VSymTab)
    locale$$data                             0x0801c264   Section      272  lc_ctype_c.o(locale$$data)
    __lcctype_c_name                         0x0801c268   Data           2  lc_ctype_c.o(locale$$data)
    __lcctype_c_start                        0x0801c270   Data           0  lc_ctype_c.o(locale$$data)
    __lcctype_c_end                          0x0801c374   Data           0  lc_ctype_c.o(locale$$data)
    .data                                    0x20000000   Section        8  platform.o(.data)
    spi_cs                                   0x20000000   Data           8  platform.o(.data)
    .data                                    0x20000008   Section        8  rt_stm32f10x_spi.o(.data)
    stm32_spi_ops                            0x20000008   Data           8  rt_stm32f10x_spi.o(.data)
    .data                                    0x20000010   Section       16  stm32_eth.o(.data)
    .data                                    0x20000020   Section       24  usart.o(.data)
    .data                                    0x20000038   Section       20  system_stm32f10x.o(.data)
    .data                                    0x2000004c   Section       20  stm32f10x_rcc.o(.data)
    ADCPrescTable                            0x2000004c   Data           4  stm32f10x_rcc.o(.data)
    APBAHBPrescTable                         0x20000050   Data          16  stm32f10x_rcc.o(.data)
    .data                                    0x20000060   Section        4  clock.o(.data)
    rt_tick                                  0x20000060   Data           4  clock.o(.data)
    .data                                    0x20000064   Section        4  idle.o(.data)
    rt_thread_idle_hook                      0x20000064   Data           4  idle.o(.data)
    .data                                    0x20000068   Section        1  irq.o(.data)
    .data                                    0x2000006c   Section        8  kservice.o(.data)
    _console_device                          0x2000006c   Data           4  kservice.o(.data)
    _errno                                   0x20000070   Data           4  kservice.o(.data)
    .data                                    0x20000074   Section       32  mem.o(.data)
    rt_malloc_hook                           0x20000074   Data           4  mem.o(.data)
    rt_free_hook                             0x20000078   Data           4  mem.o(.data)
    heap_ptr                                 0x2000007c   Data           4  mem.o(.data)
    heap_end                                 0x20000080   Data           4  mem.o(.data)
    lfree                                    0x20000084   Data           4  mem.o(.data)
    mem_size_aligned                         0x20000088   Data           4  mem.o(.data)
    used_mem                                 0x2000008c   Data           4  mem.o(.data)
    max_mem                                  0x20000090   Data           4  mem.o(.data)
    .data                                    0x20000094   Section        8  mempool.o(.data)
    rt_mp_alloc_hook                         0x20000094   Data           4  mempool.o(.data)
    rt_mp_free_hook                          0x20000098   Data           4  mempool.o(.data)
    .data                                    0x2000009c   Section      164  object.o(.data)
    rt_object_attach_hook                    0x2000009c   Data           4  object.o(.data)
    rt_object_detach_hook                    0x200000a0   Data           4  object.o(.data)
    .data                                    0x20000140   Section       24  scheduler.o(.data)
    rt_scheduler_lock_nest                   0x20000142   Data           2  scheduler.o(.data)
    rt_scheduler_hook                        0x2000014c   Data           4  scheduler.o(.data)
    .data                                    0x20000158   Section       12  timer.o(.data)
    rt_timer_timeout_hook                    0x20000158   Data           4  timer.o(.data)
    rt_timer_list                            0x2000015c   Data           8  timer.o(.data)
    .data                                    0x20000164   Section        4  cpuport.o(.data)
    rt_exception_hook                        0x20000164   Data           4  cpuport.o(.data)
    .data                                    0x20000168   Section        4  cpuport.o(.data)
    .data                                    0x2000016c   Section        4  cpuport.o(.data)
    .data                                    0x20000170   Section        4  cpuport.o(.data)
    .data                                    0x20000174   Section      256  dfs.o(.data)
    .data                                    0x20000274   Section        4  cmd.o(.data)
    dummy                                    0x20000274   Data           4  cmd.o(.data)
    .data                                    0x20000278   Section        8  finsh_compiler.o(.data)
    .data                                    0x20000280   Section       64  finsh_error.o(.data)
    finsh_error_string_table                 0x20000284   Data          60  finsh_error.o(.data)
    .data                                    0x200002c0   Section        8  finsh_heap.o(.data)
    free_list                                0x200002c0   Data           4  finsh_heap.o(.data)
    allocate_list                            0x200002c4   Data           4  finsh_heap.o(.data)
    .data                                    0x200002c8   Section        4  finsh_var.o(.data)
    .data                                    0x200002cc   Section       12  finsh_vm.o(.data)
    .data                                    0x200002d8   Section      133  shell.o(.data)
    finsh_prompt                             0x200002dc   Data         129  shell.o(.data)
    .data                                    0x20000360   Section        4  symbol.o(.data)
    .data                                    0x20000364   Section        4  symbol.o(.data)
    .data                                    0x20000368   Section        4  symbol.o(.data)
    .data                                    0x2000036c   Section        4  symbol.o(.data)
    .data                                    0x20000370   Section        8  sockets.o(.data)
    select_cb_list                           0x20000370   Data           4  sockets.o(.data)
    select_cb_ctr                            0x20000374   Data           4  sockets.o(.data)
    .data                                    0x20000378   Section       12  tcpip.o(.data)
    tcpip_init_done                          0x20000378   Data           4  tcpip.o(.data)
    tcpip_init_done_arg                      0x2000037c   Data           4  tcpip.o(.data)
    mbox                                     0x20000380   Data           4  tcpip.o(.data)
    .data                                    0x20000384   Section        6  sys_arch.o(.data)
    counter                                  0x20000384   Data           2  sys_arch.o(.data)
    counter                                  0x20000386   Data           2  sys_arch.o(.data)
    counter                                  0x20000388   Data           2  sys_arch.o(.data)
    .data                                    0x2000038c   Section        4  dhcp.o(.data)
    xid                                      0x2000038c   Data           4  dhcp.o(.data)
    .data                                    0x20000390   Section       20  dns.o(.data)
    dns_seqno                                0x20000390   Data           1  dns.o(.data)
    dns_pcb                                  0x20000394   Data           4  dns.o(.data)
    dns_payload                              0x20000398   Data           4  dns.o(.data)
    dns_servers                              0x2000039c   Data           8  dns.o(.data)
    .data                                    0x200003a4   Section       12  netif.o(.data)
    netifnum                                 0x200003a4   Data           1  netif.o(.data)
    .data                                    0x200003b0   Section        1  pbuf.o(.data)
    pbuf_free_ooseq_queued                   0x200003b0   Data           1  pbuf.o(.data)
    .data                                    0x200003b4   Section        4  raw.o(.data)
    raw_pcbs                                 0x200003b4   Data           4  raw.o(.data)
    .data                                    0x200003b8   Section       32  tcp.o(.data)
    tcp_timer                                0x200003b8   Data           1  tcp.o(.data)
    port                                     0x200003ba   Data           2  tcp.o(.data)
    iss                                      0x200003bc   Data           4  tcp.o(.data)
    .data                                    0x200003d8   Section       28  tcp_in.o(.data)
    flags                                    0x200003d8   Data           1  tcp_in.o(.data)
    recv_flags                               0x200003d9   Data           1  tcp_in.o(.data)
    tcplen                                   0x200003da   Data           2  tcp_in.o(.data)
    tcphdr                                   0x200003dc   Data           4  tcp_in.o(.data)
    iphdr                                    0x200003e0   Data           4  tcp_in.o(.data)
    seqno                                    0x200003e4   Data           4  tcp_in.o(.data)
    ackno                                    0x200003e8   Data           4  tcp_in.o(.data)
    recv_data                                0x200003ec   Data           4  tcp_in.o(.data)
    .data                                    0x200003f4   Section        8  timers.o(.data)
    next_timeout                             0x200003f4   Data           4  timers.o(.data)
    tcpip_tcp_timer_active                   0x200003f8   Data           4  timers.o(.data)
    .data                                    0x200003fc   Section        4  udp.o(.data)
    .data                                    0x20000400   Section       20  ip.o(.data)
    ip_id                                    0x20000400   Data           2  ip.o(.data)
    .data                                    0x20000414   Section        1  etharp.o(.data)
    etharp_cached_entry                      0x20000414   Data           1  etharp.o(.data)
    .bss                                     0x20000418   Section      188  platform.o(.bss)
    stm32_spi                                0x20000418   Data         112  platform.o(.bss)
    spi_device                               0x20000488   Data          76  platform.o(.bss)
    .bss                                     0x200004d4   Section     9556  stm32_eth.o(.bss)
    ETH_InitStructure                        0x200004d4   Data         188  stm32_eth.o(.bss)
    DMARxDscrTab                             0x20000590   Data          64  stm32_eth.o(.bss)
    DMATxDscrTab                             0x200005d0   Data          32  stm32_eth.o(.bss)
    Rx_Buff                                  0x200005f0   Data        6080  stm32_eth.o(.bss)
    Tx_Buff                                  0x20001db0   Data        3040  stm32_eth.o(.bss)
    stm32_eth_device                         0x20002990   Data         120  stm32_eth.o(.bss)
    tx_buf_free                              0x20002a08   Data          32  stm32_eth.o(.bss)
    .bss                                     0x20002a28   Section      136  usart.o(.bss)
    .bss                                     0x20002ab0   Section      128  usart.o(.bss)
    .bss                                     0x20002b30   Section      136  usart.o(.bss)
    .bss                                     0x20002bb8   Section      384  idle.o(.bss)
    idle                                     0x20002bb8   Data         128  idle.o(.bss)
    rt_thread_stack                          0x20002c38   Data         256  idle.o(.bss)
    .bss                                     0x20002d38   Section      128  kservice.o(.bss)
    rt_log_buf                               0x20002d38   Data         128  kservice.o(.bss)
    .bss                                     0x20002db8   Section       32  mem.o(.bss)
    heap_sem                                 0x20002db8   Data          32  mem.o(.bss)
    .bss                                     0x20002dd8   Section      256  scheduler.o(.bss)
    .bss                                     0x20002ed8   Section      212  dfs.o(.bss)
    fslock                                   0x20002f08   Data          36  dfs.o(.bss)
    .bss                                     0x20002fac   Section      292  dfs_file.o(.bss)
    fd                                       0x20002fac   Data          32  dfs_file.o(.bss)
    dirent                                   0x20002fcc   Data         260  dfs_file.o(.bss)
    .bss                                     0x200030d0   Section      128  finsh_heap.o(.bss)
    .bss                                     0x20003150   Section      320  finsh_node.o(.bss)
    .bss                                     0x20003290   Section      192  finsh_var.o(.bss)
    .bss                                     0x20003350   Section      384  finsh_vm.o(.bss)
    .bss                                     0x200034d0   Section     2176  shell.o(.bss)
    finsh_thread                             0x200034d0   Data         128  shell.o(.bss)
    finsh_thread_stack                       0x20003550   Data        2048  shell.o(.bss)
    .bss                                     0x20003d50   Section       96  sockets.o(.bss)
    sockets                                  0x20003d50   Data          96  sockets.o(.bss)
    .bss                                     0x20003db0   Section       50  dhcp.o(.bss)
    .bss                                     0x20003de4   Section     1635  dns.o(.bss)
    dns_table                                0x20003de4   Data        1120  dns.o(.bss)
    dns_payload_buffer                       0x20004244   Data         515  dns.o(.bss)
    .bss                                     0x20004448   Section       20  tcp_in.o(.bss)
    inseg                                    0x20004448   Data          20  tcp_in.o(.bss)
    .bss                                     0x2000445c   Section       16  ip_addr.o(.bss)
    str                                      0x2000445c   Data          16  ip_addr.o(.bss)
    .bss                                     0x2000446c   Section      160  etharp.o(.bss)
    arp_table                                0x2000446c   Data         160  etharp.o(.bss)
    .bss                                     0x2000450c   Section     1408  ethernetif.o(.bss)
    eth_tx_thread_mb                         0x2000450c   Data          48  ethernetif.o(.bss)
    eth_tx_thread                            0x2000453c   Data         128  ethernetif.o(.bss)
    eth_tx_thread_mb_pool                    0x200045bc   Data          16  ethernetif.o(.bss)
    eth_tx_thread_stack                      0x200045cc   Data         512  ethernetif.o(.bss)
    eth_rx_thread_mb                         0x200047cc   Data          48  ethernetif.o(.bss)
    eth_rx_thread                            0x200047fc   Data         128  ethernetif.o(.bss)
    eth_rx_thread_mb_pool                    0x2000487c   Data          16  ethernetif.o(.bss)
    eth_rx_thread_stack                      0x2000488c   Data         512  ethernetif.o(.bss)
    .bss                                     0x20004a8c   Section       96  libspace.o(.bss)
    HEAP                                     0x20004af0   Section      512  startup_stm32f10x_cl.o(HEAP)
    Heap_Mem                                 0x20004af0   Data         512  startup_stm32f10x_cl.o(HEAP)
    STACK                                    0x20004cf0   Section     1024  startup_stm32f10x_cl.o(STACK)
    Stack_Mem                                0x20004cf0   Data        1024  startup_stm32f10x_cl.o(STACK)
    __initial_sp                             0x200050f0   Data           0  startup_stm32f10x_cl.o(STACK)

    Global Symbols

    Symbol Name                              Value     Ov Type        Size  Object(Section)

    BuildAttributes$$THM_ISAv4$P$D$K$B$S$PE$A:L22UL41UL21$X:L11$S22US41US21$IEEE1$IW$USESV6$~STKCKD$USESV7$~SHL$OTIME$ROPI$IEEEX$EBA8$UX$STANDARDLIB$REQ8$PRES8$EABIv2 0x00000000   Number         0  anon$$obj.o ABSOLUTE
    __ARM_use_no_argv                        0x00000000   Number         0  startup.o ABSOLUTE
    _printf_flags                            0x00000000   Number         0  printf_stubs.o ABSOLUTE
    _printf_return_value                     0x00000000   Number         0  printf_stubs.o ABSOLUTE
    _printf_sizespec                         0x00000000   Number         0  printf_stubs.o ABSOLUTE
    _printf_widthprec                        0x00000000   Number         0  printf_stubs.o ABSOLUTE
    __ARM_exceptions_init                     - Undefined Weak Reference
    __alloca_initialize                       - Undefined Weak Reference
    __cpp_initialize__aeabi_                  - Undefined Weak Reference
    __cxa_finalize                            - Undefined Weak Reference
    __sigvec_lookup                           - Undefined Weak Reference
    __user_heap_extent                        - Undefined Weak Reference
    _atexit_init                              - Undefined Weak Reference
    _call_atexit_fns                          - Undefined Weak Reference
    _clock_init                               - Undefined Weak Reference
    _fp_trap_init                             - Undefined Weak Reference
    _fp_trap_shutdown                         - Undefined Weak Reference
    _get_lc_collate                           - Undefined Weak Reference
    _get_lc_monetary                          - Undefined Weak Reference
    _getenv_init                              - Undefined Weak Reference
    _handle_redirection                       - Undefined Weak Reference
    _mutex_acquire                            - Undefined Weak Reference
    _mutex_free                               - Undefined Weak Reference
    _mutex_release                            - Undefined Weak Reference
    _printf_mbtowc                            - Undefined Weak Reference
    _printf_wc                                - Undefined Weak Reference
    _rand_init                                - Undefined Weak Reference
    _scanf_longlong                           - Undefined Weak Reference
    _scanf_mbtowc                             - Undefined Weak Reference
    _scanf_real                               - Undefined Weak Reference
    _scanf_string                             - Undefined Weak Reference
    _scanf_wctomb                             - Undefined Weak Reference
    _scanf_wstring                            - Undefined Weak Reference
    _signal_finish                            - Undefined Weak Reference
    _signal_init                              - Undefined Weak Reference
    __Vectors_Size                           0x00000150   Number         0  startup_stm32f10x_cl.o ABSOLUTE
    __Vectors                                0x08000000   Data           4  startup_stm32f10x_cl.o(RESET)
    __Vectors_End                            0x08000150   Data           0  startup_stm32f10x_cl.o(RESET)
    __main                                   0x08000151   Thumb Code     8  __main.o(!!!main)
    __scatterload                            0x08000159   Thumb Code     0  __scatter.o(!!!scatter)
    __scatterload_rt2                        0x08000159   Thumb Code    44  __scatter.o(!!!scatter)
    __scatterload_rt2_thumb_only             0x08000159   Thumb Code     0  __scatter.o(!!!scatter)
    __scatterload_null                       0x08000167   Thumb Code     0  __scatter.o(!!!scatter)
    __decompress                             0x0800018d   Thumb Code    90  __dczerorl2.o(!!dczerorl2)
    __decompress1                            0x0800018d   Thumb Code     0  __dczerorl2.o(!!dczerorl2)
    __scatterload_zeroinit                   0x080001e9   Thumb Code    28  __scatter_zi.o(!!handler_zi)
    __rt_lib_init                            0x08000205   Thumb Code     0  libinit.o(.ARM.Collect$$libinit$$00000000)
    __rt_lib_init_heap_1                     0x0800020b   Thumb Code     0  libinit2.o(.ARM.Collect$$libinit$$00000006)
    __rt_lib_init_lc_common                  0x0800020b   Thumb Code     0  libinit2.o(.ARM.Collect$$libinit$$0000000B)
    __rt_lib_init_rand_1                     0x0800020b   Thumb Code     0  libinit2.o(.ARM.Collect$$libinit$$0000000A)
    __rt_lib_init_user_alloc_1               0x0800020b   Thumb Code     0  libinit2.o(.ARM.Collect$$libinit$$00000008)
    __rt_lib_init_lc_collate_1               0x08000211   Thumb Code     0  libinit2.o(.ARM.Collect$$libinit$$0000000D)
    __rt_lib_init_lc_ctype_2                 0x08000211   Thumb Code     0  libinit2.o(.ARM.Collect$$libinit$$0000000E)
    __rt_lib_init_alloca_1                   0x0800021d   Thumb Code     0  libinit2.o(.ARM.Collect$$libinit$$0000002A)
    __rt_lib_init_argv_1                     0x0800021d   Thumb Code     0  libinit2.o(.ARM.Collect$$libinit$$00000028)
    __rt_lib_init_atexit_1                   0x0800021d   Thumb Code     0  libinit2.o(.ARM.Collect$$libinit$$00000017)
    __rt_lib_init_clock_1                    0x0800021d   Thumb Code     0  libinit2.o(.ARM.Collect$$libinit$$0000001D)
    __rt_lib_init_cpp_1                      0x0800021d   Thumb Code     0  libinit2.o(.ARM.Collect$$libinit$$0000002E)
    __rt_lib_init_exceptions_1               0x0800021d   Thumb Code     0  libinit2.o(.ARM.Collect$$libinit$$0000002C)
    __rt_lib_init_fp_trap_1                  0x0800021d   Thumb Code     0  libinit2.o(.ARM.Collect$$libinit$$0000001B)
    __rt_lib_init_getenv_1                   0x0800021d   Thumb Code     0  libinit2.o(.ARM.Collect$$libinit$$0000001F)
    __rt_lib_init_lc_ctype_1                 0x0800021d   Thumb Code     0  libinit2.o(.ARM.Collect$$libinit$$0000000F)
    __rt_lib_init_lc_monetary_1              0x0800021d   Thumb Code     0  libinit2.o(.ARM.Collect$$libinit$$00000011)
    __rt_lib_init_lc_numeric_1               0x0800021d   Thumb Code     0  libinit2.o(.ARM.Collect$$libinit$$00000013)
    __rt_lib_init_lc_time_1                  0x0800021d   Thumb Code     0  libinit2.o(.ARM.Collect$$libinit$$00000015)
    __rt_lib_init_return                     0x0800021d   Thumb Code     0  libinit2.o(.ARM.Collect$$libinit$$0000002F)
    __rt_lib_init_signal_1                   0x0800021d   Thumb Code     0  libinit2.o(.ARM.Collect$$libinit$$00000019)
    __rt_lib_init_stdio_1                    0x0800021d   Thumb Code     0  libinit2.o(.ARM.Collect$$libinit$$00000021)
    __rt_lib_shutdown                        0x0800021f   Thumb Code     0  libshutdown.o(.ARM.Collect$$libshutdown$$00000000)
    __rt_lib_shutdown_fp_trap_1              0x08000221   Thumb Code     0  libshutdown2.o(.ARM.Collect$$libshutdown$$00000006)
    __rt_lib_shutdown_heap_1                 0x08000221   Thumb Code     0  libshutdown2.o(.ARM.Collect$$libshutdown$$0000000E)
    __rt_lib_shutdown_return                 0x08000221   Thumb Code     0  libshutdown2.o(.ARM.Collect$$libshutdown$$0000000F)
    __rt_lib_shutdown_signal_1               0x08000221   Thumb Code     0  libshutdown2.o(.ARM.Collect$$libshutdown$$00000009)
    __rt_lib_shutdown_stdio_1                0x08000221   Thumb Code     0  libshutdown2.o(.ARM.Collect$$libshutdown$$00000003)
    __rt_lib_shutdown_user_alloc_1           0x08000221   Thumb Code     0  libshutdown2.o(.ARM.Collect$$libshutdown$$0000000B)
    __rt_entry                               0x08000223   Thumb Code     0  rtentry.o(.ARM.Collect$$rtentry$$00000000)
    __rt_entry_presh_1                       0x08000223   Thumb Code     0  rtentry2.o(.ARM.Collect$$rtentry$$00000002)
    __rt_entry_sh                            0x08000223   Thumb Code     0  rtentry4.o(.ARM.Collect$$rtentry$$00000004)
    __rt_entry_li                            0x08000229   Thumb Code     0  rtentry2.o(.ARM.Collect$$rtentry$$0000000A)
    __rt_entry_postsh_1                      0x08000229   Thumb Code     0  rtentry2.o(.ARM.Collect$$rtentry$$00000009)
    __rt_entry_main                          0x0800022d   Thumb Code     0  rtentry2.o(.ARM.Collect$$rtentry$$0000000D)
    __rt_entry_postli_1                      0x0800022d   Thumb Code     0  rtentry2.o(.ARM.Collect$$rtentry$$0000000C)
    __rt_exit                                0x08000235   Thumb Code     0  rtexit.o(.ARM.Collect$$rtexit$$00000000)
    __rt_exit_ls                             0x08000237   Thumb Code     0  rtexit2.o(.ARM.Collect$$rtexit$$00000003)
    __rt_exit_prels_1                        0x08000237   Thumb Code     0  rtexit2.o(.ARM.Collect$$rtexit$$00000002)
    __rt_exit_exit                           0x0800023b   Thumb Code     0  rtexit2.o(.ARM.Collect$$rtexit$$00000004)
    rt_init_thread_entry                     0x08000241   Thumb Code    68  application.o(.text)
    rt_application_init                      0x08000285   Thumb Code    34  application.o(.text)
    assert_failed                            0x08000305   Thumb Code    28  startup.o(.text)
    rtthread_startup                         0x08000321   Thumb Code    58  startup.o(.text)
    main                                     0x0800035b   Thumb Code    14  startup.o(.text)
    NVIC_Configuration                       0x080003c1   Thumb Code    10  board.o(.text)
    SysTick_Handler                          0x080003cb   Thumb Code    18  board.o(.text)
    rt_hw_board_init                         0x080003dd   Thumb Code    62  board.o(.text)
    rt_platform_init                         0x0800042d   Thumb Code     4  platform.o(.text)
    stm32_spi_register                       0x08000681   Thumb Code    82  rt_stm32f10x_spi.o(.text)
    rt_hw_serial_register                    0x08000933   Thumb Code   116  serial.o(.text)
    rt_hw_serial_isr                         0x080009a7   Thumb Code   208  serial.o(.text)
    rt_hw_serial_dma_tx_isr                  0x08000a77   Thumb Code   410  serial.o(.text)
    ETH_DeInit                               0x08000c11   Thumb Code    24  stm32_eth.o(.text)
    ETH_Init                                 0x08000c29   Thumb Code  1398  stm32_eth.o(.text)
    ETH_StructInit                           0x0800119f   Thumb Code   124  stm32_eth.o(.text)
    ETH_DMAReceptionCmd                      0x0800121b   Thumb Code    40  stm32_eth.o(.text)
    ETH_DMATransmissionCmd                   0x08001243   Thumb Code    40  stm32_eth.o(.text)
    ETH_MACReceptionCmd                      0x0800126b   Thumb Code    40  stm32_eth.o(.text)
    ETH_FlushTransmitFIFO                    0x08001293   Thumb Code    12  stm32_eth.o(.text)
    ETH_MACTransmissionCmd                   0x0800129f   Thumb Code    40  stm32_eth.o(.text)
    ETH_Start                                0x080012c7   Thumb Code    32  stm32_eth.o(.text)
    ETH_HandleTxPkt                          0x080012e7   Thumb Code    98  stm32_eth.o(.text)
    ETH_HandleRxPkt                          0x08001349   Thumb Code   112  stm32_eth.o(.text)
    ETH_GetDMARxDescFrameLength              0x080013b9   Thumb Code     8  stm32_eth.o(.text)
    ETH_GetRxPktSize                         0x080013c1   Thumb Code    28  stm32_eth.o(.text)
    ETH_DropRxPkt                            0x080013dd   Thumb Code    44  stm32_eth.o(.text)
    ETH_ReadPHYRegister                      0x08001409   Thumb Code   146  stm32_eth.o(.text)
    ETH_WritePHYRegister                     0x0800149b   Thumb Code   108  stm32_eth.o(.text)
    ETH_PHYLoopBackCmd                       0x08001507   Thumb Code    76  stm32_eth.o(.text)
    ETH_GetFlowControlBusyStatus             0x08001553   Thumb Code    14  stm32_eth.o(.text)
    ETH_InitiatePauseControlFrame            0x08001561   Thumb Code    12  stm32_eth.o(.text)
    ETH_BackPressureActivationCmd            0x0800156d   Thumb Code    40  stm32_eth.o(.text)
    ETH_GetMACFlagStatus                     0x08001595   Thumb Code    54  stm32_eth.o(.text)
    ETH_GetMACITStatus                       0x080015cb   Thumb Code    54  stm32_eth.o(.text)
    ETH_MACITConfig                          0x08001601   Thumb Code    60  stm32_eth.o(.text)
    ETH_MACAddressConfig                     0x0800163d   Thumb Code    54  stm32_eth.o(.text)
    ETH_GetMACAddress                        0x08001673   Thumb Code    62  stm32_eth.o(.text)
    ETH_MACAddressPerfectFilterCmd           0x080016b1   Thumb Code    70  stm32_eth.o(.text)
    ETH_MACAddressFilterConfig               0x080016f7   Thumb Code    70  stm32_eth.o(.text)
    ETH_MACAddressMaskBytesFilterConfig      0x0800173d   Thumb Code    98  stm32_eth.o(.text)
    ETH_DMATxDescChainInit                   0x0800179f   Thumb Code    62  stm32_eth.o(.text)
    ETH_DMATxDescRingInit                    0x080017dd   Thumb Code    60  stm32_eth.o(.text)
    ETH_GetDMATxDescFlagStatus               0x08001819   Thumb Code   184  stm32_eth.o(.text)
    ETH_GetDMATxDescCollisionCount           0x080018d1   Thumb Code     8  stm32_eth.o(.text)
    ETH_SetDMATxDescOwnBit                   0x080018d9   Thumb Code    10  stm32_eth.o(.text)
    ETH_DMATxDescTransmitITConfig            0x080018e3   Thumb Code    40  stm32_eth.o(.text)
    ETH_DMATxDescFrameSegmentConfig          0x0800190b   Thumb Code    38  stm32_eth.o(.text)
    ETH_DMATxDescChecksumInsertionConfig     0x08001931   Thumb Code    46  stm32_eth.o(.text)
    ETH_DMATxDescCRCCmd                      0x0800195f   Thumb Code    40  stm32_eth.o(.text)
    ETH_DMATxDescEndOfRingCmd                0x08001987   Thumb Code    40  stm32_eth.o(.text)
    ETH_DMATxDescSecondAddressChainedCmd     0x080019af   Thumb Code    40  stm32_eth.o(.text)
    ETH_DMATxDescShortFramePaddingCmd        0x080019d7   Thumb Code    40  stm32_eth.o(.text)
    ETH_DMATxDescTimeStampCmd                0x080019ff   Thumb Code    40  stm32_eth.o(.text)
    ETH_DMATxDescBufferSizeConfig            0x08001a27   Thumb Code    58  stm32_eth.o(.text)
    ETH_DMARxDescChainInit                   0x08001a61   Thumb Code    70  stm32_eth.o(.text)
    ETH_DMARxDescRingInit                    0x08001aa7   Thumb Code    76  stm32_eth.o(.text)
    ETH_GetDMARxDescFlagStatus               0x08001af3   Thumb Code   124  stm32_eth.o(.text)
    ETH_SetDMARxDescOwnBit                   0x08001b6f   Thumb Code    10  stm32_eth.o(.text)
    ETH_DMARxDescReceiveITConfig             0x08001b79   Thumb Code    40  stm32_eth.o(.text)
    ETH_DMARxDescEndOfRingCmd                0x08001ba1   Thumb Code    40  stm32_eth.o(.text)
    ETH_DMARxDescSecondAddressChainedCmd     0x08001bc9   Thumb Code    40  stm32_eth.o(.text)
    ETH_GetDMARxDescBufferSize               0x08001bf1   Thumb Code    38  stm32_eth.o(.text)
    ETH_SoftwareReset                        0x08001c17   Thumb Code    12  stm32_eth.o(.text)
    ETH_GetSoftwareResetStatus               0x08001c23   Thumb Code    14  stm32_eth.o(.text)
    ETH_GetDMAFlagStatus                     0x08001c31   Thumb Code   124  stm32_eth.o(.text)
    ETH_DMAClearFlag                         0x08001cad   Thumb Code    30  stm32_eth.o(.text)
    ETH_GetDMAITStatus                       0x08001ccb   Thumb Code   124  stm32_eth.o(.text)
    ETH_DMAClearITPendingBit                 0x08001d47   Thumb Code    30  stm32_eth.o(.text)
    ETH_GetTransmitProcessState              0x08001d65   Thumb Code    10  stm32_eth.o(.text)
    ETH_GetReceiveProcessState               0x08001d6f   Thumb Code    10  stm32_eth.o(.text)
    ETH_GetFlushTransmitFIFOStatus           0x08001d79   Thumb Code    14  stm32_eth.o(.text)
    ETH_DMAITConfig                          0x08001d87   Thumb Code    60  stm32_eth.o(.text)
    ETH_GetDMAOverflowStatus                 0x08001dc3   Thumb Code    44  stm32_eth.o(.text)
    ETH_GetRxOverflowMissedFrameCounter      0x08001def   Thumb Code    10  stm32_eth.o(.text)
    ETH_GetBufferUnavailableMissedFrameCounter 0x08001df9   Thumb Code     8  stm32_eth.o(.text)
    ETH_GetCurrentTxDescStartAddress         0x08001e01   Thumb Code     6  stm32_eth.o(.text)
    ETH_GetCurrentRxDescStartAddress         0x08001e07   Thumb Code     6  stm32_eth.o(.text)
    ETH_GetCurrentTxBufferAddress            0x08001e0d   Thumb Code     6  stm32_eth.o(.text)
    ETH_GetCurrentRxBufferAddress            0x08001e13   Thumb Code     6  stm32_eth.o(.text)
    ETH_ResumeDMATransmission                0x08001e19   Thumb Code     8  stm32_eth.o(.text)
    ETH_ResumeDMAReception                   0x08001e21   Thumb Code     8  stm32_eth.o(.text)
    ETH_ResetWakeUpFrameFilterRegisterPointer 0x08001e29   Thumb Code    12  stm32_eth.o(.text)
    ETH_SetWakeUpFrameFilterRegister         0x08001e35   Thumb Code    36  stm32_eth.o(.text)
    ETH_GlobalUnicastWakeUpCmd               0x08001e59   Thumb Code    40  stm32_eth.o(.text)
    ETH_GetPMTFlagStatus                     0x08001e81   Thumb Code    40  stm32_eth.o(.text)
    ETH_WakeUpFrameDetectionCmd              0x08001ea9   Thumb Code    40  stm32_eth.o(.text)
    ETH_MagicPacketDetectionCmd              0x08001ed1   Thumb Code    40  stm32_eth.o(.text)
    ETH_PowerDownCmd                         0x08001ef9   Thumb Code    40  stm32_eth.o(.text)
    ETH_MMCCounterFreezeCmd                  0x08001f21   Thumb Code    46  stm32_eth.o(.text)
    ETH_MMCResetOnReadCmd                    0x08001f4f   Thumb Code    46  stm32_eth.o(.text)
    ETH_MMCCounterRolloverCmd                0x08001f7d   Thumb Code    46  stm32_eth.o(.text)
    ETH_MMCCountersReset                     0x08001fab   Thumb Code    12  stm32_eth.o(.text)
    ETH_MMCITConfig                          0x08001fb7   Thumb Code    96  stm32_eth.o(.text)
    ETH_GetMMCITStatus                       0x08002017   Thumb Code    86  stm32_eth.o(.text)
    ETH_GetMMCRegister                       0x0800206d   Thumb Code    86  stm32_eth.o(.text)
    ETH_EnablePTPTimeStampAddend             0x080020c3   Thumb Code    12  stm32_eth.o(.text)
    ETH_EnablePTPTimeStampInterruptTrigger   0x080020cf   Thumb Code    12  stm32_eth.o(.text)
    ETH_EnablePTPTimeStampUpdate             0x080020db   Thumb Code    12  stm32_eth.o(.text)
    ETH_InitializePTPTimeStamp               0x080020e7   Thumb Code    12  stm32_eth.o(.text)
    ETH_PTPUpdateMethodConfig                0x080020f3   Thumb Code    38  stm32_eth.o(.text)
    ETH_PTPTimeStampCmd                      0x08002119   Thumb Code    38  stm32_eth.o(.text)
    ETH_GetPTPFlagStatus                     0x0800213f   Thumb Code    46  stm32_eth.o(.text)
    ETH_SetPTPSubSecondIncrement             0x0800216d   Thumb Code    26  stm32_eth.o(.text)
    ETH_SetPTPTimeStampUpdate                0x08002187   Thumb Code    58  stm32_eth.o(.text)
    ETH_SetPTPTimeStampAddend                0x080021c1   Thumb Code     8  stm32_eth.o(.text)
    ETH_SetPTPTargetTime                     0x080021c9   Thumb Code    12  stm32_eth.o(.text)
    ETH_GetPTPRegister                       0x080021d5   Thumb Code    70  stm32_eth.o(.text)
    ETH_DMAPTPTxDescChainInit                0x0800221b   Thumb Code   120  stm32_eth.o(.text)
    ETH_DMAPTPRxDescChainInit                0x08002293   Thumb Code    98  stm32_eth.o(.text)
    ETH_HandlePTPTxPkt                       0x080022f5   Thumb Code   176  stm32_eth.o(.text)
    ETH_HandlePTPRxPkt                       0x080023a5   Thumb Code   144  stm32_eth.o(.text)
    ETH_IRQHandler                           0x08002435   Thumb Code   104  stm32_eth.o(.text)
    rt_stm32_eth_tx                          0x0800258b   Thumb Code   150  stm32_eth.o(.text)
    rt_stm32_eth_rx                          0x08002621   Thumb Code   172  stm32_eth.o(.text)
    rt_hw_stm32_eth_init                     0x080027a9   Thumb Code   160  stm32_eth.o(.text)
    NMI_Handler                              0x08002885   Thumb Code     2  stm32f10x_it.o(.text)
    MemManage_Handler                        0x08002887   Thumb Code     2  stm32f10x_it.o(.text)
    BusFault_Handler                         0x08002889   Thumb Code     2  stm32f10x_it.o(.text)
    UsageFault_Handler                       0x0800288b   Thumb Code     2  stm32f10x_it.o(.text)
    SVC_Handler                              0x0800288d   Thumb Code     2  stm32f10x_it.o(.text)
    DebugMon_Handler                         0x0800288f   Thumb Code     2  stm32f10x_it.o(.text)
    USART1_IRQHandler                        0x08002891   Thumb Code    20  stm32f10x_it.o(.text)
    USART2_IRQHandler                        0x080028a5   Thumb Code    20  stm32f10x_it.o(.text)
    USART3_IRQHandler                        0x080028b9   Thumb Code     2  stm32f10x_it.o(.text)
    rt_hw_usart_init                         0x080028c5   Thumb Code   376  usart.o(.text)
    SystemInit                               0x08002b0d   Thumb Code    76  system_stm32f10x.o(.text)
    SystemCoreClockUpdate                    0x08002b59   Thumb Code   134  system_stm32f10x.o(.text)
    RCC_DeInit                               0x08002c0d   Thumb Code    62  stm32f10x_rcc.o(.text)
    RCC_HSEConfig                            0x08002c4b   Thumb Code    76  stm32f10x_rcc.o(.text)
    RCC_GetFlagStatus                        0x08002c97   Thumb Code   108  stm32f10x_rcc.o(.text)
    RCC_WaitForHSEStartUp                    0x08002d03   Thumb Code    38  stm32f10x_rcc.o(.text)
    RCC_AdjustHSICalibrationValue            0x08002d29   Thumb Code    34  stm32f10x_rcc.o(.text)
    RCC_HSICmd                               0x08002d4b   Thumb Code    26  stm32f10x_rcc.o(.text)
    RCC_PLLConfig                            0x08002d65   Thumb Code    92  stm32f10x_rcc.o(.text)
    RCC_PLLCmd                               0x08002dc1   Thumb Code    26  stm32f10x_rcc.o(.text)
    RCC_PREDIV1Config                        0x08002ddb   Thumb Code   112  stm32f10x_rcc.o(.text)
    RCC_PREDIV2Config                        0x08002e4b   Thumb Code    90  stm32f10x_rcc.o(.text)
    RCC_PLL2Config                           0x08002ea5   Thumb Code    82  stm32f10x_rcc.o(.text)
    RCC_PLL2Cmd                              0x08002ef7   Thumb Code    26  stm32f10x_rcc.o(.text)
    RCC_PLL3Config                           0x08002f11   Thumb Code    82  stm32f10x_rcc.o(.text)
    RCC_PLL3Cmd                              0x08002f63   Thumb Code    26  stm32f10x_rcc.o(.text)
    RCC_SYSCLKConfig                         0x08002f7d   Thumb Code    38  stm32f10x_rcc.o(.text)
    RCC_GetSYSCLKSource                      0x08002fa3   Thumb Code    10  stm32f10x_rcc.o(.text)
    RCC_HCLKConfig                           0x08002fad   Thumb Code   144  stm32f10x_rcc.o(.text)
    RCC_PCLK1Config                          0x0800303d   Thumb Code    56  stm32f10x_rcc.o(.text)
    RCC_PCLK2Config                          0x08003075   Thumb Code    58  stm32f10x_rcc.o(.text)
    RCC_ITConfig                             0x080030af   Thumb Code    58  stm32f10x_rcc.o(.text)
    RCC_OTGFSCLKConfig                       0x080030e9   Thumb Code    28  stm32f10x_rcc.o(.text)
    RCC_ADCCLKConfig                         0x08003105   Thumb Code    50  stm32f10x_rcc.o(.text)
    RCC_I2S2CLKConfig                        0x08003137   Thumb Code    28  stm32f10x_rcc.o(.text)
    RCC_I2S3CLKConfig                        0x08003153   Thumb Code    30  stm32f10x_rcc.o(.text)
    RCC_LSEConfig                            0x08003171   Thumb Code    56  stm32f10x_rcc.o(.text)
    RCC_LSICmd                               0x080031a9   Thumb Code    28  stm32f10x_rcc.o(.text)
    RCC_RTCCLKConfig                         0x080031c5   Thumb Code    44  stm32f10x_rcc.o(.text)
    RCC_RTCCLKCmd                            0x080031f1   Thumb Code    30  stm32f10x_rcc.o(.text)
    RCC_GetClocksFreq                        0x0800320f   Thumb Code   182  stm32f10x_rcc.o(.text)
    RCC_AHBPeriphClockCmd                    0x080032c5   Thumb Code    60  stm32f10x_rcc.o(.text)
    RCC_APB2PeriphClockCmd                   0x08003301   Thumb Code    60  stm32f10x_rcc.o(.text)
    RCC_APB1PeriphClockCmd                   0x0800333d   Thumb Code    60  stm32f10x_rcc.o(.text)
    RCC_AHBPeriphResetCmd                    0x08003379   Thumb Code    60  stm32f10x_rcc.o(.text)
    RCC_APB2PeriphResetCmd                   0x080033b5   Thumb Code    60  stm32f10x_rcc.o(.text)
    RCC_APB1PeriphResetCmd                   0x080033f1   Thumb Code    60  stm32f10x_rcc.o(.text)
    RCC_BackupResetCmd                       0x0800342d   Thumb Code    80  stm32f10x_rcc.o(.text)
    RCC_ClockSecuritySystemCmd               0x0800347d   Thumb Code    28  stm32f10x_rcc.o(.text)
    RCC_MCOConfig                            0x08003499   Thumb Code    56  stm32f10x_rcc.o(.text)
    RCC_ClearFlag                            0x080034d1   Thumb Code    12  stm32f10x_rcc.o(.text)
    RCC_GetITStatus                          0x080034dd   Thumb Code    64  stm32f10x_rcc.o(.text)
    RCC_ClearITPendingBit                    0x0800351d   Thumb Code    24  stm32f10x_rcc.o(.text)
    SPI_I2S_DeInit                           0x0800353d   Thumb Code    98  stm32f10x_spi.o(.text)
    SPI_Init                                 0x0800359f   Thumb Code   270  stm32f10x_spi.o(.text)
    I2S_Init                                 0x080036ad   Thumb Code   386  stm32f10x_spi.o(.text)
    SPI_StructInit                           0x0800382f   Thumb Code    24  stm32f10x_spi.o(.text)
    I2S_StructInit                           0x08003847   Thumb Code    18  stm32f10x_spi.o(.text)
    SPI_Cmd                                  0x08003859   Thumb Code    68  stm32f10x_spi.o(.text)
    I2S_Cmd                                  0x0800389d   Thumb Code    62  stm32f10x_spi.o(.text)
    SPI_I2S_ITConfig                         0x080038db   Thumb Code   182  stm32f10x_spi.o(.text)
    SPI_I2S_DMACmd                           0x08003991   Thumb Code    88  stm32f10x_spi.o(.text)
    SPI_I2S_SendData                         0x080039e9   Thumb Code    40  stm32f10x_spi.o(.text)
    SPI_I2S_ReceiveData                      0x08003a11   Thumb Code    38  stm32f10x_spi.o(.text)
    SPI_NSSInternalSoftwareConfig            0x08003a37   Thumb Code    84  stm32f10x_spi.o(.text)
    SPI_SSOutputCmd                          0x08003a8b   Thumb Code    72  stm32f10x_spi.o(.text)
    SPI_DataSizeConfig                       0x08003ad3   Thumb Code    72  stm32f10x_spi.o(.text)
    SPI_TransmitCRC                          0x08003b1b   Thumb Code    44  stm32f10x_spi.o(.text)
    SPI_CalculateCRC                         0x08003b47   Thumb Code    72  stm32f10x_spi.o(.text)
    SPI_GetCRC                               0x08003b8f   Thumb Code    62  stm32f10x_spi.o(.text)
    SPI_GetCRCPolynomial                     0x08003bcd   Thumb Code    38  stm32f10x_spi.o(.text)
    SPI_BiDirectionalLineConfig              0x08003bf3   Thumb Code    88  stm32f10x_spi.o(.text)
    SPI_I2S_GetFlagStatus                    0x08003c4b   Thumb Code    94  stm32f10x_spi.o(.text)
    SPI_I2S_ClearFlag                        0x08003ca9   Thumb Code    58  stm32f10x_spi.o(.text)
    SPI_I2S_GetITStatus                      0x08003ce3   Thumb Code   110  stm32f10x_spi.o(.text)
    SPI_I2S_ClearITPendingBit                0x08003d51   Thumb Code    80  stm32f10x_spi.o(.text)
    GPIO_DeInit                              0x08003da1   Thumb Code   202  stm32f10x_gpio.o(.text)
    GPIO_AFIODeInit                          0x08003e6b   Thumb Code    22  stm32f10x_gpio.o(.text)
    GPIO_Init                                0x08003e81   Thumb Code   288  stm32f10x_gpio.o(.text)
    GPIO_StructInit                          0x08003fa1   Thumb Code    16  stm32f10x_gpio.o(.text)
    GPIO_ReadInputDataBit                    0x08003fb1   Thumb Code   162  stm32f10x_gpio.o(.text)
    GPIO_ReadInputData                       0x08004053   Thumb Code    62  stm32f10x_gpio.o(.text)
    GPIO_ReadOutputDataBit                   0x08004091   Thumb Code   162  stm32f10x_gpio.o(.text)
    GPIO_ReadOutputData                      0x08004133   Thumb Code    62  stm32f10x_gpio.o(.text)
    GPIO_SetBits                             0x08004171   Thumb Code   168  stm32f10x_gpio.o(.text)
    GPIO_ResetBits                           0x08004219   Thumb Code    78  stm32f10x_gpio.o(.text)
    GPIO_WriteBit                            0x08004267   Thumb Code   180  stm32f10x_gpio.o(.text)
    GPIO_Write                               0x0800431b   Thumb Code    64  stm32f10x_gpio.o(.text)
    GPIO_PinLockConfig                       0x0800435b   Thumb Code    90  stm32f10x_gpio.o(.text)
    GPIO_EventOutputConfig                   0x080043b5   Thumb Code   130  stm32f10x_gpio.o(.text)
    GPIO_EventOutputCmd                      0x08004437   Thumb Code    28  stm32f10x_gpio.o(.text)
    GPIO_PinRemapConfig                      0x08004453   Thumb Code   486  stm32f10x_gpio.o(.text)
    GPIO_EXTILineConfig                      0x08004639   Thumb Code   150  stm32f10x_gpio.o(.text)
    GPIO_ETH_MediaInterfaceConfig            0x080046cf   Thumb Code    28  stm32f10x_gpio.o(.text)
    USART_DeInit                             0x080046f5   Thumb Code   134  stm32f10x_usart.o(.text)
    USART_Init                               0x0800477b   Thumb Code   380  stm32f10x_usart.o(.text)
    USART_StructInit                         0x080048f7   Thumb Code    22  stm32f10x_usart.o(.text)
    USART_ClockInit                          0x0800490d   Thumb Code   142  stm32f10x_usart.o(.text)
    USART_ClockStructInit                    0x0800499b   Thumb Code    12  stm32f10x_usart.o(.text)
    USART_Cmd                                0x080049a7   Thumb Code    80  stm32f10x_usart.o(.text)
    USART_ITConfig                           0x080049f7   Thumb Code   206  stm32f10x_usart.o(.text)
    USART_DMACmd                             0x08004ac5   Thumb Code   188  stm32f10x_usart.o(.text)
    USART_SetAddress                         0x08004b81   Thumb Code    80  stm32f10x_usart.o(.text)
    USART_WakeUpConfig                       0x08004bd1   Thumb Code    84  stm32f10x_usart.o(.text)
    USART_ReceiverWakeUpCmd                  0x08004c25   Thumb Code    84  stm32f10x_usart.o(.text)
    USART_LINBreakDetectLengthConfig         0x08004c79   Thumb Code    82  stm32f10x_usart.o(.text)
    USART_LINCmd                             0x08004ccb   Thumb Code    84  stm32f10x_usart.o(.text)
    USART_SendData                           0x08004d1f   Thumb Code    74  stm32f10x_usart.o(.text)
    USART_ReceiveData                        0x08004d69   Thumb Code    54  stm32f10x_usart.o(.text)
    USART_SendBreak                          0x08004d9f   Thumb Code    56  stm32f10x_usart.o(.text)
    USART_SetGuardTime                       0x08004dd7   Thumb Code    52  stm32f10x_usart.o(.text)
    USART_SetPrescaler                       0x08004e0b   Thumb Code    64  stm32f10x_usart.o(.text)
    USART_SmartCardCmd                       0x08004e4b   Thumb Code    72  stm32f10x_usart.o(.text)
    USART_SmartCardNACKCmd                   0x08004e93   Thumb Code    72  stm32f10x_usart.o(.text)
    USART_HalfDuplexCmd                      0x08004edb   Thumb Code    84  stm32f10x_usart.o(.text)
    USART_OverSampling8Cmd                   0x08004f2f   Thumb Code   104  stm32f10x_usart.o(.text)
    USART_OneBitMethodCmd                    0x08004f97   Thumb Code    84  stm32f10x_usart.o(.text)
    USART_IrDAConfig                         0x08004feb   Thumb Code    82  stm32f10x_usart.o(.text)
    USART_IrDACmd                            0x0800503d   Thumb Code    84  stm32f10x_usart.o(.text)
    USART_GetFlagStatus                      0x08005091   Thumb Code   142  stm32f10x_usart.o(.text)
    USART_ClearFlag                          0x0800511f   Thumb Code   108  stm32f10x_usart.o(.text)
    USART_GetITStatus                        0x0800518b   Thumb Code   224  stm32f10x_usart.o(.text)
    USART_ClearITPendingBit                  0x0800526b   Thumb Code   136  stm32f10x_usart.o(.text)
    DMA_DeInit                               0x08005309   Thumb Code   316  stm32f10x_dma.o(.text)
    DMA_Init                                 0x08005445   Thumb Code   342  stm32f10x_dma.o(.text)
    DMA_StructInit                           0x0800559b   Thumb Code    26  stm32f10x_dma.o(.text)
    DMA_Cmd                                  0x080055b5   Thumb Code   144  stm32f10x_dma.o(.text)
    DMA_ITConfig                             0x08005645   Thumb Code   158  stm32f10x_dma.o(.text)
    DMA_SetCurrDataCounter                   0x080056e3   Thumb Code   184  stm32f10x_dma.o(.text)
    DMA_GetCurrDataCounter                   0x0800579b   Thumb Code   114  stm32f10x_dma.o(.text)
    DMA_GetFlagStatus                        0x0800580d   Thumb Code   314  stm32f10x_dma.o(.text)
    DMA_ClearFlag                            0x08005947   Thumb Code    48  stm32f10x_dma.o(.text)
    DMA_GetITStatus                          0x08005977   Thumb Code   314  stm32f10x_dma.o(.text)
    DMA_ClearITPendingBit                    0x08005ab1   Thumb Code    48  stm32f10x_dma.o(.text)
    NVIC_PriorityGroupConfig                 0x08005b15   Thumb Code    52  misc.o(.text)
    NVIC_Init                                0x08005b49   Thumb Code   138  misc.o(.text)
    NVIC_SetVectorTable                      0x08005bd3   Thumb Code    54  misc.o(.text)
    NVIC_SystemLPConfig                      0x08005c09   Thumb Code    58  misc.o(.text)
    SysTick_CLKSourceConfig                  0x08005c43   Thumb Code    40  misc.o(.text)
    Reset_Handler                            0x08005cb1   Thumb Code     8  startup_stm32f10x_cl.o(.text)
    ADC1_2_IRQHandler                        0x08005ccb   Thumb Code     0  startup_stm32f10x_cl.o(.text)
    CAN1_RX0_IRQHandler                      0x08005ccb   Thumb Code     0  startup_stm32f10x_cl.o(.text)
    CAN1_RX1_IRQHandler                      0x08005ccb   Thumb Code     0  startup_stm32f10x_cl.o(.text)
    CAN1_SCE_IRQHandler                      0x08005ccb   Thumb Code     0  startup_stm32f10x_cl.o(.text)
    CAN1_TX_IRQHandler                       0x08005ccb   Thumb Code     0  startup_stm32f10x_cl.o(.text)
    CAN2_RX0_IRQHandler                      0x08005ccb   Thumb Code     0  startup_stm32f10x_cl.o(.text)
    CAN2_RX1_IRQHandler                      0x08005ccb   Thumb Code     0  startup_stm32f10x_cl.o(.text)
    CAN2_SCE_IRQHandler                      0x08005ccb   Thumb Code     0  startup_stm32f10x_cl.o(.text)
    CAN2_TX_IRQHandler                       0x08005ccb   Thumb Code     0  startup_stm32f10x_cl.o(.text)
    DMA1_Channel1_IRQHandler                 0x08005ccb   Thumb Code     0  startup_stm32f10x_cl.o(.text)
    DMA1_Channel2_IRQHandler                 0x08005ccb   Thumb Code     0  startup_stm32f10x_cl.o(.text)
    DMA1_Channel3_IRQHandler                 0x08005ccb   Thumb Code     0  startup_stm32f10x_cl.o(.text)
    DMA1_Channel4_IRQHandler                 0x08005ccb   Thumb Code     0  startup_stm32f10x_cl.o(.text)
    DMA1_Channel5_IRQHandler                 0x08005ccb   Thumb Code     0  startup_stm32f10x_cl.o(.text)
    DMA1_Channel6_IRQHandler                 0x08005ccb   Thumb Code     0  startup_stm32f10x_cl.o(.text)
    DMA1_Channel7_IRQHandler                 0x08005ccb   Thumb Code     0  startup_stm32f10x_cl.o(.text)
    DMA2_Channel1_IRQHandler                 0x08005ccb   Thumb Code     0  startup_stm32f10x_cl.o(.text)
    DMA2_Channel2_IRQHandler                 0x08005ccb   Thumb Code     0  startup_stm32f10x_cl.o(.text)
    DMA2_Channel3_IRQHandler                 0x08005ccb   Thumb Code     0  startup_stm32f10x_cl.o(.text)
    DMA2_Channel4_IRQHandler                 0x08005ccb   Thumb Code     0  startup_stm32f10x_cl.o(.text)
    DMA2_Channel5_IRQHandler                 0x08005ccb   Thumb Code     0  startup_stm32f10x_cl.o(.text)
    ETH_WKUP_IRQHandler                      0x08005ccb   Thumb Code     0  startup_stm32f10x_cl.o(.text)
    EXTI0_IRQHandler                         0x08005ccb   Thumb Code     0  startup_stm32f10x_cl.o(.text)
    EXTI15_10_IRQHandler                     0x08005ccb   Thumb Code     0  startup_stm32f10x_cl.o(.text)
    EXTI1_IRQHandler                         0x08005ccb   Thumb Code     0  startup_stm32f10x_cl.o(.text)
    EXTI2_IRQHandler                         0x08005ccb   Thumb Code     0  startup_stm32f10x_cl.o(.text)
    EXTI3_IRQHandler                         0x08005ccb   Thumb Code     0  startup_stm32f10x_cl.o(.text)
    EXTI4_IRQHandler                         0x08005ccb   Thumb Code     0  startup_stm32f10x_cl.o(.text)
    EXTI9_5_IRQHandler                       0x08005ccb   Thumb Code     0  startup_stm32f10x_cl.o(.text)
    FLASH_IRQHandler                         0x08005ccb   Thumb Code     0  startup_stm32f10x_cl.o(.text)
    I2C1_ER_IRQHandler                       0x08005ccb   Thumb Code     0  startup_stm32f10x_cl.o(.text)
    I2C1_EV_IRQHandler                       0x08005ccb   Thumb Code     0  startup_stm32f10x_cl.o(.text)
    I2C2_ER_IRQHandler                       0x08005ccb   Thumb Code     0  startup_stm32f10x_cl.o(.text)
    I2C2_EV_IRQHandler                       0x08005ccb   Thumb Code     0  startup_stm32f10x_cl.o(.text)
    OTG_FS_IRQHandler                        0x08005ccb   Thumb Code     0  startup_stm32f10x_cl.o(.text)
    OTG_FS_WKUP_IRQHandler                   0x08005ccb   Thumb Code     0  startup_stm32f10x_cl.o(.text)
    PVD_IRQHandler                           0x08005ccb   Thumb Code     0  startup_stm32f10x_cl.o(.text)
    RCC_IRQHandler                           0x08005ccb   Thumb Code     0  startup_stm32f10x_cl.o(.text)
    RTCAlarm_IRQHandler                      0x08005ccb   Thumb Code     0  startup_stm32f10x_cl.o(.text)
    RTC_IRQHandler                           0x08005ccb   Thumb Code     0  startup_stm32f10x_cl.o(.text)
    SPI1_IRQHandler                          0x08005ccb   Thumb Code     0  startup_stm32f10x_cl.o(.text)
    SPI2_IRQHandler                          0x08005ccb   Thumb Code     0  startup_stm32f10x_cl.o(.text)
    SPI3_IRQHandler                          0x08005ccb   Thumb Code     0  startup_stm32f10x_cl.o(.text)
    TAMPER_IRQHandler                        0x08005ccb   Thumb Code     0  startup_stm32f10x_cl.o(.text)
    TIM1_BRK_IRQHandler                      0x08005ccb   Thumb Code     0  startup_stm32f10x_cl.o(.text)
    TIM1_CC_IRQHandler                       0x08005ccb   Thumb Code     0  startup_stm32f10x_cl.o(.text)
    TIM1_TRG_COM_IRQHandler                  0x08005ccb   Thumb Code     0  startup_stm32f10x_cl.o(.text)
    TIM1_UP_IRQHandler                       0x08005ccb   Thumb Code     0  startup_stm32f10x_cl.o(.text)
    TIM2_IRQHandler                          0x08005ccb   Thumb Code     0  startup_stm32f10x_cl.o(.text)
    TIM3_IRQHandler                          0x08005ccb   Thumb Code     0  startup_stm32f10x_cl.o(.text)
    TIM4_IRQHandler                          0x08005ccb   Thumb Code     0  startup_stm32f10x_cl.o(.text)
    TIM5_IRQHandler                          0x08005ccb   Thumb Code     0  startup_stm32f10x_cl.o(.text)
    TIM6_IRQHandler                          0x08005ccb   Thumb Code     0  startup_stm32f10x_cl.o(.text)
    TIM7_IRQHandler                          0x08005ccb   Thumb Code     0  startup_stm32f10x_cl.o(.text)
    UART4_IRQHandler                         0x08005ccb   Thumb Code     0  startup_stm32f10x_cl.o(.text)
    UART5_IRQHandler                         0x08005ccb   Thumb Code     0  startup_stm32f10x_cl.o(.text)
    WWDG_IRQHandler                          0x08005ccb   Thumb Code     0  startup_stm32f10x_cl.o(.text)
    __user_initial_stackheap                 0x08005ccd   Thumb Code     0  startup_stm32f10x_cl.o(.text)
    rt_system_tick_init                      0x08005cf1   Thumb Code     2  clock.o(.text)
    rt_tick_get                              0x08005cf3   Thumb Code     6  clock.o(.text)
    rt_tick_set                              0x08005cf9   Thumb Code    20  clock.o(.text)
    rt_tick_increase                         0x08005d0d   Thumb Code    38  clock.o(.text)
    rt_tick_from_millisecond                 0x08005d33   Thumb Code    24  clock.o(.text)
    rt_device_find                           0x08005d51   Thumb Code    76  device.o(.text)
    rt_device_register                       0x08005d9d   Thumb Code    44  device.o(.text)
    rt_device_unregister                     0x08005dc9   Thumb Code    34  device.o(.text)
    rt_device_init_all                       0x08005deb   Thumb Code    60  device.o(.text)
    rt_device_init                           0x08005e27   Thumb Code    72  device.o(.text)
    rt_device_open                           0x08005e6f   Thumb Code   118  device.o(.text)
    rt_device_close                          0x08005ee5   Thumb Code    56  device.o(.text)
    rt_device_read                           0x08005f1d   Thumb Code    68  device.o(.text)
    rt_device_write                          0x08005f61   Thumb Code    68  device.o(.text)
    rt_device_control                        0x08005fa5   Thumb Code    54  device.o(.text)
    rt_device_set_rx_indicate                0x08005fdb   Thumb Code    36  device.o(.text)
    rt_device_set_tx_complete                0x08005fff   Thumb Code    36  device.o(.text)
    rt_thread_idle_sethook                   0x08006095   Thumb Code     6  idle.o(.text)
    rt_thread_idle_excute                    0x0800609b   Thumb Code   146  idle.o(.text)
    rt_thread_idle_init                      0x0800613b   Thumb Code    40  idle.o(.text)
    rt_sem_init                              0x08006253   Thumb Code    58  ipc.o(.text)
    rt_sem_detach                            0x0800628d   Thumb Code    44  ipc.o(.text)
    rt_sem_create                            0x080062b9   Thumb Code    86  ipc.o(.text)
    rt_sem_delete                            0x0800630f   Thumb Code    96  ipc.o(.text)
    rt_sem_take                              0x0800636f   Thumb Code   210  ipc.o(.text)
    rt_sem_trytake                           0x08006441   Thumb Code     4  ipc.o(.text)
    rt_sem_release                           0x08006445   Thumb Code    72  ipc.o(.text)
    rt_sem_control                           0x0800648d   Thumb Code    74  ipc.o(.text)
    rt_mutex_init                            0x080064d7   Thumb Code    70  ipc.o(.text)
    rt_mutex_detach                          0x0800651d   Thumb Code    46  ipc.o(.text)
    rt_mutex_create                          0x0800654b   Thumb Code    96  ipc.o(.text)
    rt_mutex_delete                          0x080065ab   Thumb Code    96  ipc.o(.text)
    rt_mutex_take                            0x0800660b   Thumb Code   394  ipc.o(.text)
    rt_mutex_release                         0x08006795   Thumb Code   158  ipc.o(.text)
    rt_mutex_control                         0x08006833   Thumb Code     6  ipc.o(.text)
    rt_event_init                            0x08006839   Thumb Code    62  ipc.o(.text)
    rt_event_detach                          0x08006877   Thumb Code    48  ipc.o(.text)
    rt_event_create                          0x080068a7   Thumb Code    92  ipc.o(.text)
    rt_event_delete                          0x08006903   Thumb Code   104  ipc.o(.text)
    rt_event_send                            0x0800696b   Thumb Code   178  ipc.o(.text)
    rt_event_recv                            0x08006a1d   Thumb Code   316  ipc.o(.text)
    rt_event_control                         0x08006b59   Thumb Code    74  ipc.o(.text)
    rt_mb_init                               0x08006ba3   Thumb Code    84  ipc.o(.text)
    rt_mb_detach                             0x08006bf7   Thumb Code    56  ipc.o(.text)
    rt_mb_create                             0x08006c2f   Thumb Code   132  ipc.o(.text)
    rt_mb_delete                             0x08006cb3   Thumb Code   118  ipc.o(.text)
    rt_mb_send_wait                          0x08006d29   Thumb Code   338  ipc.o(.text)
    rt_mb_send                               0x08006e7b   Thumb Code     4  ipc.o(.text)
    rt_mb_recv                               0x08006e7f   Thumb Code   398  ipc.o(.text)
    rt_mb_control                            0x0800700d   Thumb Code    86  ipc.o(.text)
    rt_mq_init                               0x08007063   Thumb Code   126  ipc.o(.text)
    rt_mq_detach                             0x080070e1   Thumb Code    48  ipc.o(.text)
    rt_mq_delete                             0x08007111   Thumb Code   110  ipc.o(.text)
    rt_mq_create                             0x0800717f   Thumb Code   168  ipc.o(.text)
    rt_mq_send                               0x08007227   Thumb Code   218  ipc.o(.text)
    rt_mq_urgent                             0x08007301   Thumb Code   274  ipc.o(.text)
    rt_mq_recv                               0x08007413   Thumb Code   394  ipc.o(.text)
    rt_mq_control                            0x0800759d   Thumb Code   102  ipc.o(.text)
    rt_interrupt_enter                       0x08007639   Thumb Code    22  irq.o(.text)
    rt_interrupt_leave                       0x0800764f   Thumb Code    22  irq.o(.text)
    rt_interrupt_get_nest                    0x08007665   Thumb Code     6  irq.o(.text)
    rt_get_errno                             0x08007671   Thumb Code    24  kservice.o(.text)
    rt_set_errno                             0x08007689   Thumb Code    26  kservice.o(.text)
    _rt_errno                                0x080076a3   Thumb Code    24  kservice.o(.text)
    rt_memset                                0x080076bb   Thumb Code    68  kservice.o(.text)
    rt_memcpy                                0x080076ff   Thumb Code    70  kservice.o(.text)
    rt_memmove                               0x08007745   Thumb Code    46  kservice.o(.text)
    rt_memcmp                                0x08007773   Thumb Code    28  kservice.o(.text)
    rt_strlen                                0x0800778f   Thumb Code    16  kservice.o(.text)
    rt_strstr                                0x0800779f   Thumb Code    54  kservice.o(.text)
    rt_strcasecmp                            0x080077d5   Thumb Code    42  kservice.o(.text)
    rt_strncpy                               0x080077ff   Thumb Code    38  kservice.o(.text)
    rt_strncmp                               0x08007825   Thumb Code    32  kservice.o(.text)
    rt_strcmp                                0x08007845   Thumb Code    24  kservice.o(.text)
    rt_strdup                                0x0800785d   Thumb Code    36  kservice.o(.text)
    rt_hw_console_output                     0x08007881   Thumb Code     2  kservice.o(.text)
    rt_kprintf                               0x08007c05   Thumb Code    52  kservice.o(.text)
    rt_show_version                          0x08007c39   Thumb Code    38  kservice.o(.text)
    rt_snprintf                              0x08007c5f   Thumb Code    14  kservice.o(.text)
    rt_vsprintf                              0x08007c6d   Thumb Code    10  kservice.o(.text)
    rt_sprintf                               0x08007c77   Thumb Code    14  kservice.o(.text)
    rt_console_get_device                    0x08007c85   Thumb Code     6  kservice.o(.text)
    rt_console_set_device                    0x08007c8b   Thumb Code    36  kservice.o(.text)
    rt_malloc_align                          0x08007caf   Thumb Code    50  kservice.o(.text)
    rt_free_align                            0x08007ce1   Thumb Code     8  kservice.o(.text)
    __rt_ffs                                 0x08007ce9   Thumb Code    62  kservice.o(.text)
    rt_malloc_sethook                        0x08007ded   Thumb Code     6  mem.o(.text)
    rt_free_sethook                          0x08007df3   Thumb Code     6  mem.o(.text)
    rt_system_heap_init                      0x08007e93   Thumb Code   150  mem.o(.text)
    rt_malloc                                0x08007f29   Thumb Code   408  mem.o(.text)
    rt_free                                  0x080080c1   Thumb Code   682  mem.o(.text)
    rt_realloc                               0x0800836b   Thumb Code   238  mem.o(.text)
    rt_calloc                                0x08008459   Thumb Code    88  mem.o(.text)
    rt_memory_info                           0x080084b1   Thumb Code    26  mem.o(.text)
    list_mem                                 0x080084cb   Thumb Code    32  mem.o(.text)
    rt_mp_alloc_sethook                      0x08008541   Thumb Code     6  mempool.o(.text)
    rt_mp_free_sethook                       0x08008547   Thumb Code     6  mempool.o(.text)
    rt_mp_init                               0x0800854d   Thumb Code   126  mempool.o(.text)
    rt_mp_detach                             0x080085cb   Thumb Code    86  mempool.o(.text)
    rt_mp_create                             0x08008621   Thumb Code   158  mempool.o(.text)
    rt_mp_delete                             0x080086bf   Thumb Code   142  mempool.o(.text)
    rt_mp_alloc                              0x0800874d   Thumb Code   206  mempool.o(.text)
    rt_mp_free                               0x0800881b   Thumb Code    82  mempool.o(.text)
    rt_object_attach_sethook                 0x080088dd   Thumb Code     6  object.o(.text)
    rt_object_detach_sethook                 0x080088e3   Thumb Code     6  object.o(.text)
    rt_object_trytake_sethook                0x080088e9   Thumb Code     6  object.o(.text)
    rt_object_take_sethook                   0x080088ef   Thumb Code     6  object.o(.text)
    rt_object_put_sethook                    0x080088f5   Thumb Code     6  object.o(.text)
    rt_system_object_init                    0x080088fb   Thumb Code     2  object.o(.text)
    rt_object_get_information                0x080088fd   Thumb Code    10  object.o(.text)
    rt_object_init                           0x08008907   Thumb Code    66  object.o(.text)
    rt_object_detach                         0x08008949   Thumb Code    58  object.o(.text)
    rt_object_allocate                       0x08008983   Thumb Code   130  object.o(.text)
    rt_object_delete                         0x08008a05   Thumb Code    96  object.o(.text)
    rt_object_is_systemobject                0x08008a65   Thumb Code    42  object.o(.text)
    rt_object_find                           0x08008a8f   Thumb Code   100  object.o(.text)
    rt_scheduler_sethook                     0x08008ba9   Thumb Code     6  scheduler.o(.text)
    rt_system_scheduler_init                 0x08008baf   Thumb Code    44  scheduler.o(.text)
    rt_system_scheduler_start                0x08008bdb   Thumb Code    32  scheduler.o(.text)
    rt_schedule                              0x08008bfb   Thumb Code    94  scheduler.o(.text)
    rt_schedule_insert_thread                0x08008c59   Thumb Code    84  scheduler.o(.text)
    rt_schedule_remove_thread                0x08008cad   Thumb Code    90  scheduler.o(.text)
    rt_enter_critical                        0x08008d07   Thumb Code    22  scheduler.o(.text)
    rt_exit_critical                         0x08008d1d   Thumb Code    42  scheduler.o(.text)
    rt_thread_timeout                        0x08008e87   Thumb Code    82  thread.o(.text)
    rt_thread_init                           0x08008f61   Thumb Code    94  thread.o(.text)
    rt_thread_self                           0x08008fbf   Thumb Code     6  thread.o(.text)
    rt_thread_resume                         0x08008fc5   Thumb Code    92  thread.o(.text)
    rt_thread_startup                        0x08009021   Thumb Code    98  thread.o(.text)
    rt_thread_detach                         0x08009083   Thumb Code    82  thread.o(.text)
    rt_thread_create                         0x080090d5   Thumb Code    70  thread.o(.text)
    rt_thread_delete                         0x0800911b   Thumb Code    74  thread.o(.text)
    rt_thread_yield                          0x08009165   Thumb Code    82  thread.o(.text)
    rt_thread_suspend                        0x080091b7   Thumb Code    70  thread.o(.text)
    rt_thread_sleep                          0x080091fd   Thumb Code   286  thread.o(.text)
    rt_thread_delay                          0x0800931b   Thumb Code     2  thread.o(.text)
    rt_thread_control                        0x0800931d   Thumb Code   124  thread.o(.text)
    rt_thread_find                           0x08009399   Thumb Code    70  thread.o(.text)
    rt_timer_timeout_sethook                 0x0800940d   Thumb Code     6  timer.o(.text)
    rt_timer_init                            0x08009413   Thumb Code    64  timer.o(.text)
    rt_timer_detach                          0x08009453   Thumb Code    56  timer.o(.text)
    rt_timer_create                          0x0800948b   Thumb Code    46  timer.o(.text)
    rt_timer_delete                          0x080094b9   Thumb Code    56  timer.o(.text)
    rt_timer_start                           0x080094f1   Thumb Code   188  timer.o(.text)
    rt_timer_stop                            0x080095ad   Thumb Code    82  timer.o(.text)
    rt_timer_control                         0x080095ff   Thumb Code    84  timer.o(.text)
    rt_timer_check                           0x08009653   Thumb Code   120  timer.o(.text)
    rt_timer_next_timeout_tick               0x080096cb   Thumb Code    26  timer.o(.text)
    rt_system_timer_init                     0x080096e5   Thumb Code     2  timer.o(.text)
    rt_system_timer_thread_init              0x080096e7   Thumb Code     2  timer.o(.text)
    rt_hw_stack_init                         0x0800979d   Thumb Code    52  cpuport.o(.text)
    rt_hw_exception_install                  0x080097d1   Thumb Code     6  cpuport.o(.text)
    rt_hw_hard_fault_exception               0x080097d7   Thumb Code   102  cpuport.o(.text)
    rt_hw_cpu_shutdown                       0x0800983d   Thumb Code    28  cpuport.o(.text)
    rt_hw_interrupt_disable                  0x08009935   Thumb Code     8  context_rvds.o(.text)
    rt_hw_interrupt_enable                   0x0800993d   Thumb Code     6  context_rvds.o(.text)
    rt_hw_context_switch                     0x08009943   Thumb Code    32  context_rvds.o(.text)
    rt_hw_context_switch_interrupt           0x08009943   Thumb Code     0  context_rvds.o(.text)
    PendSV_Handler                           0x08009963   Thumb Code    60  context_rvds.o(.text)
    rt_hw_context_switch_to                  0x0800999f   Thumb Code    58  context_rvds.o(.text)
    rt_hw_interrupt_thread_switch            0x080099d9   Thumb Code     4  context_rvds.o(.text)
    HardFault_Handler                        0x080099dd   Thumb Code    20  context_rvds.o(.text)
    dfs_init                                 0x08009a09   Thumb Code    70  dfs.o(.text)
    dfs_lock                                 0x08009a4f   Thumb Code    38  dfs.o(.text)
    dfs_unlock                               0x08009a75   Thumb Code     8  dfs.o(.text)
    fd_new                                   0x08009a7d   Thumb Code    66  dfs.o(.text)
    fd_get                                   0x08009abf   Thumb Code    62  dfs.o(.text)
    fd_put                                   0x08009afd   Thumb Code    60  dfs.o(.text)
    dfs_normalize_path                       0x08009b39   Thumb Code   262  dfs.o(.text)
    fd_is_open                               0x08009c3f   Thumb Code   134  dfs.o(.text)
    dfs_subdir                               0x08009cc5   Thumb Code    48  dfs.o(.text)
    dfs_register                             0x08009d59   Thumb Code    76  dfs_fs.o(.text)
    dfs_filesystem_lookup                    0x08009da5   Thumb Code    96  dfs_fs.o(.text)
    dfs_filesystem_get_partition             0x08009e05   Thumb Code   168  dfs_fs.o(.text)
    dfs_mount                                0x08009ead   Thumb Code   338  dfs_fs.o(.text)
    dfs_unmount                              0x08009fff   Thumb Code   110  dfs_fs.o(.text)
    dfs_mkfs                                 0x0800a06d   Thumb Code   100  dfs_fs.o(.text)
    dfs_statfs                               0x0800a0d1   Thumb Code    30  dfs_fs.o(.text)
    mkfs                                     0x0800a0ef   Thumb Code     2  dfs_fs.o(.text)
    df                                       0x0800a0f1   Thumb Code    48  dfs_fs.o(.text)
    dfs_file_open                            0x0800a241   Thumb Code   194  dfs_file.o(.text)
    dfs_file_close                           0x0800a303   Thumb Code    46  dfs_file.o(.text)
    dfs_file_ioctl                           0x0800a331   Thumb Code    28  dfs_file.o(.text)
    dfs_file_read                            0x0800a34d   Thumb Code    44  dfs_file.o(.text)
    dfs_file_getdents                        0x0800a379   Thumb Code    30  dfs_file.o(.text)
    dfs_file_unlink                          0x0800a397   Thumb Code   118  dfs_file.o(.text)
    dfs_file_write                           0x0800a40d   Thumb Code    24  dfs_file.o(.text)
    dfs_file_flush                           0x0800a425   Thumb Code    24  dfs_file.o(.text)
    dfs_file_lseek                           0x0800a43d   Thumb Code    38  dfs_file.o(.text)
    dfs_file_stat                            0x0800a463   Thumb Code   156  dfs_file.o(.text)
    dfs_file_rename                          0x0800a4ff   Thumb Code   132  dfs_file.o(.text)
    ls                                       0x0800a583   Thumb Code   190  dfs_file.o(.text)
    rm                                       0x0800a641   Thumb Code    26  dfs_file.o(.text)
    cat                                      0x0800a65b   Thumb Code    72  dfs_file.o(.text)
    copy                                     0x0800a6a3   Thumb Code   278  dfs_file.o(.text)
    open                                     0x0800a7f1   Thumb Code    76  dfs_posix.o(.text)
    close                                    0x0800a83d   Thumb Code    56  dfs_posix.o(.text)
    read                                     0x0800a875   Thumb Code    62  dfs_posix.o(.text)
    write                                    0x0800a8b3   Thumb Code    62  dfs_posix.o(.text)
    lseek                                    0x0800a8f1   Thumb Code    92  dfs_posix.o(.text)
    rename                                   0x0800a94d   Thumb Code    24  dfs_posix.o(.text)
    unlink                                   0x0800a965   Thumb Code    24  dfs_posix.o(.text)
    stat                                     0x0800a97d   Thumb Code    20  dfs_posix.o(.text)
    fstat                                    0x0800a991   Thumb Code    68  dfs_posix.o(.text)
    statfs                                   0x0800a9d5   Thumb Code    20  dfs_posix.o(.text)
    mkdir                                    0x0800a9e9   Thumb Code    70  dfs_posix.o(.text)
    rmdir                                    0x0800aa2f   Thumb Code    24  dfs_posix.o(.text)
    opendir                                  0x0800aa47   Thumb Code   114  dfs_posix.o(.text)
    readdir                                  0x0800aab9   Thumb Code   102  dfs_posix.o(.text)
    telldir                                  0x0800ab1f   Thumb Code    46  dfs_posix.o(.text)
    seekdir                                  0x0800ab4d   Thumb Code    58  dfs_posix.o(.text)
    rewinddir                                0x0800ab87   Thumb Code    56  dfs_posix.o(.text)
    closedir                                 0x0800abbf   Thumb Code    68  dfs_posix.o(.text)
    chdir                                    0x0800ac03   Thumb Code   114  dfs_posix.o(.text)
    getcwd                                   0x0800ac75   Thumb Code    28  dfs_posix.o(.text)
    rt_spi_bus_register                      0x0800ac9d   Thumb Code    36  spi_core.o(.text)
    rt_spi_bus_attach_device                 0x0800acc1   Thumb Code    60  spi_core.o(.text)
    rt_spi_configure                         0x0800acfd   Thumb Code    94  spi_core.o(.text)
    rt_spi_send_then_send                    0x0800ad5b   Thumb Code   198  spi_core.o(.text)
    rt_spi_send_then_recv                    0x0800ae21   Thumb Code   190  spi_core.o(.text)
    rt_spi_transfer                          0x0800aedf   Thumb Code   182  spi_core.o(.text)
    rt_spi_transfer_message                  0x0800af95   Thumb Code   138  spi_core.o(.text)
    rt_spi_take_bus                          0x0800b01f   Thumb Code   142  spi_core.o(.text)
    rt_spi_release_bus                       0x0800b0ad   Thumb Code   180  spi_core.o(.text)
    rt_spi_take                              0x0800b161   Thumb Code    98  spi_core.o(.text)
    rt_spi_release                           0x0800b1c3   Thumb Code    96  spi_core.o(.text)
    rt_spi_bus_device_init                   0x0800b30f   Thumb Code    68  spi_dev.o(.text)
    rt_spidev_device_init                    0x0800b41b   Thumb Code    68  spi_dev.o(.text)
    hello                                    0x0800b509   Thumb Code    12  cmd.o(.text)
    version                                  0x0800b515   Thumb Code    10  cmd.o(.text)
    list_thread                              0x0800b59f   Thumb Code     4  cmd.o(.text)
    list_sem                                 0x0800b5a3   Thumb Code     8  cmd.o(.text)
    list_event                               0x0800b5ab   Thumb Code     8  cmd.o(.text)
    list_mutex                               0x0800b5b3   Thumb Code     8  cmd.o(.text)
    list_mailbox                             0x0800b5bb   Thumb Code     8  cmd.o(.text)
    list_msgqueue                            0x0800b5c3   Thumb Code     8  cmd.o(.text)
    list_mempool                             0x0800b61f   Thumb Code     6  cmd.o(.text)
    list_timer                               0x0800b625   Thumb Code     8  cmd.o(.text)
    list_device                              0x0800b62d   Thumb Code     8  cmd.o(.text)
    list                                     0x0800b635   Thumb Code   122  cmd.o(.text)
    list_prefix                              0x0800b6af   Thumb Code   402  cmd.o(.text)
    finsh_compiler_run                       0x0800c6fd   Thumb Code    66  finsh_compiler.o(.text)
    finsh_error_init                         0x0800c74d   Thumb Code     8  finsh_error.o(.text)
    finsh_error_set                          0x0800c755   Thumb Code     8  finsh_error.o(.text)
    finsh_errno                              0x0800c75d   Thumb Code     6  finsh_error.o(.text)
    finsh_error_string                       0x0800c763   Thumb Code    10  finsh_error.o(.text)
    finsh_heap_init                          0x0800c771   Thumb Code    30  finsh_heap.o(.text)
    finsh_heap_free                          0x0800c7af   Thumb Code    36  finsh_heap.o(.text)
    finsh_heap_allocate                      0x0800c7d3   Thumb Code   168  finsh_heap.o(.text)
    finsh_init                               0x0800c919   Thumb Code    26  finsh_init.o(.text)
    finsh_stack_bottom                       0x0800c933   Thumb Code     6  finsh_init.o(.text)
    finsh_flush                              0x0800c939   Thumb Code    18  finsh_init.o(.text)
    finsh_reset                              0x0800c94b   Thumb Code    22  finsh_init.o(.text)
    finsh_node_init                          0x0800c965   Thumb Code    16  finsh_node.o(.text)
    finsh_node_allocate                      0x0800c975   Thumb Code    42  finsh_node.o(.text)
    finsh_node_new_id                        0x0800c99f   Thumb Code    94  finsh_node.o(.text)
    finsh_node_new_char                      0x0800c9fd   Thumb Code    26  finsh_node.o(.text)
    finsh_node_new_int                       0x0800ca17   Thumb Code    26  finsh_node.o(.text)
    finsh_node_new_long                      0x0800ca31   Thumb Code    26  finsh_node.o(.text)
    finsh_node_new_string                    0x0800ca4b   Thumb Code    70  finsh_node.o(.text)
    finsh_node_new_ptr                       0x0800ca91   Thumb Code    26  finsh_node.o(.text)
    OP_no_op                                 0x0800cab1   Thumb Code     2  finsh_ops.o(.text)
    OP_add_byte                              0x0800cab3   Thumb Code    20  finsh_ops.o(.text)
    OP_add_word                              0x0800cac7   Thumb Code    20  finsh_ops.o(.text)
    OP_add_dword                             0x0800cadb   Thumb Code    20  finsh_ops.o(.text)
    OP_sub_byte                              0x0800caef   Thumb Code    20  finsh_ops.o(.text)
    OP_sub_word                              0x0800cb03   Thumb Code    20  finsh_ops.o(.text)
    OP_sub_dword                             0x0800cb17   Thumb Code    22  finsh_ops.o(.text)
    OP_div_byte                              0x0800cb2d   Thumb Code    22  finsh_ops.o(.text)
    OP_div_word                              0x0800cb43   Thumb Code    26  finsh_ops.o(.text)
    OP_div_dword                             0x0800cb5d   Thumb Code    22  finsh_ops.o(.text)
    OP_mod_byte                              0x0800cb73   Thumb Code    28  finsh_ops.o(.text)
    OP_mod_word                              0x0800cb8f   Thumb Code    32  finsh_ops.o(.text)
    OP_mod_dword                             0x0800cbaf   Thumb Code    28  finsh_ops.o(.text)
    OP_mul_byte                              0x0800cbcb   Thumb Code    20  finsh_ops.o(.text)
    OP_mul_word                              0x0800cbdf   Thumb Code    20  finsh_ops.o(.text)
    OP_mul_dword                             0x0800cbf3   Thumb Code    22  finsh_ops.o(.text)
    OP_and_byte                              0x0800cc09   Thumb Code    20  finsh_ops.o(.text)
    OP_and_word                              0x0800cc1d   Thumb Code    20  finsh_ops.o(.text)
    OP_and_dword                             0x0800cc31   Thumb Code    22  finsh_ops.o(.text)
    OP_or_byte                               0x0800cc47   Thumb Code    20  finsh_ops.o(.text)
    OP_or_word                               0x0800cc5b   Thumb Code    20  finsh_ops.o(.text)
    OP_or_dword                              0x0800cc6f   Thumb Code    22  finsh_ops.o(.text)
    OP_xor_byte                              0x0800cc85   Thumb Code    20  finsh_ops.o(.text)
    OP_xor_word                              0x0800cc99   Thumb Code    20  finsh_ops.o(.text)
    OP_xor_dword                             0x0800ccad   Thumb Code    22  finsh_ops.o(.text)
    OP_bw_byte                               0x0800ccc3   Thumb Code    14  finsh_ops.o(.text)
    OP_bw_word                               0x0800ccd1   Thumb Code    14  finsh_ops.o(.text)
    OP_bw_dword                              0x0800ccdf   Thumb Code    14  finsh_ops.o(.text)
    OP_shl_byte                              0x0800cced   Thumb Code    20  finsh_ops.o(.text)
    OP_shl_word                              0x0800cd01   Thumb Code    20  finsh_ops.o(.text)
    OP_shl_dword                             0x0800cd15   Thumb Code    22  finsh_ops.o(.text)
    OP_shr_byte                              0x0800cd2b   Thumb Code    20  finsh_ops.o(.text)
    OP_shr_word                              0x0800cd3f   Thumb Code    24  finsh_ops.o(.text)
    OP_shr_dword                             0x0800cd57   Thumb Code    22  finsh_ops.o(.text)
    OP_ld_byte                               0x0800cd6d   Thumb Code    24  finsh_ops.o(.text)
    OP_ld_word                               0x0800cd85   Thumb Code    24  finsh_ops.o(.text)
    OP_ld_dword                              0x0800cd9d   Thumb Code    28  finsh_ops.o(.text)
    OP_ld_value_byte                         0x0800cdb9   Thumb Code    32  finsh_ops.o(.text)
    OP_ld_value_byte_stack                   0x0800cdd9   Thumb Code    14  finsh_ops.o(.text)
    OP_ld_value_word                         0x0800cde7   Thumb Code    32  finsh_ops.o(.text)
    OP_ld_value_word_stack                   0x0800ce07   Thumb Code    14  finsh_ops.o(.text)
    OP_ld_value_dword                        0x0800ce15   Thumb Code    30  finsh_ops.o(.text)
    OP_ld_value_dword_stack                  0x0800ce33   Thumb Code    14  finsh_ops.o(.text)
    OP_st_byte                               0x0800ce41   Thumb Code    24  finsh_ops.o(.text)
    OP_st_word                               0x0800ce59   Thumb Code    24  finsh_ops.o(.text)
    OP_st_dword                              0x0800ce71   Thumb Code    22  finsh_ops.o(.text)
    OP_pop                                   0x0800ce87   Thumb Code    18  finsh_ops.o(.text)
    OP_call                                  0x0800ce99   Thumb Code   238  finsh_ops.o(.text)
    finsh_parser_run                         0x0800d4ad   Thumb Code   154  finsh_parser.o(.text)
    finsh_parser_init                        0x0800d547   Thumb Code    12  finsh_parser.o(.text)
    finsh_token_init                         0x0800d6f5   Thumb Code    18  finsh_token.o(.text)
    token_get_string                         0x0800d819   Thumb Code   100  finsh_token.o(.text)
    finsh_token_token                        0x0800da2b   Thumb Code    24  finsh_token.o(.text)
    finsh_token_get_token                    0x0800da43   Thumb Code    14  finsh_token.o(.text)
    finsh_var_init                           0x0800dbed   Thumb Code    14  finsh_var.o(.text)
    finsh_var_insert                         0x0800dbfb   Thumb Code    90  finsh_var.o(.text)
    finsh_var_delete                         0x0800dc55   Thumb Code    60  finsh_var.o(.text)
    finsh_var_lookup                         0x0800dc91   Thumb Code    50  finsh_var.o(.text)
    finsh_sysvar_append                      0x0800dcc3   Thumb Code    50  finsh_var.o(.text)
    finsh_sysvar_lookup                      0x0800dcf5   Thumb Code    72  finsh_var.o(.text)
    finsh_vm_run                             0x0800dd4d   Thumb Code    40  finsh_vm.o(.text)
    finsh_syscall_append                     0x0800dd75   Thumb Code    42  finsh_vm.o(.text)
    finsh_syscall_lookup                     0x0800dd9f   Thumb Code    72  finsh_vm.o(.text)
    strcmp                                   0x0800ddfd   Thumb Code    24  shell.o(.text)
    strdup                                   0x0800de15   Thumb Code    36  shell.o(.text)
    finsh_get_prompt                         0x0800de39   Thumb Code    26  shell.o(.text)
    finsh_set_device                         0x0800de79   Thumb Code    92  shell.o(.text)
    finsh_get_device                         0x0800ded5   Thumb Code    38  shell.o(.text)
    finsh_set_echo                           0x0800defb   Thumb Code    46  shell.o(.text)
    finsh_get_echo                           0x0800df29   Thumb Code    42  shell.o(.text)
    finsh_auto_complete                      0x0800df53   Thumb Code    34  shell.o(.text)
    finsh_run_line                           0x0800df75   Thumb Code   136  shell.o(.text)
    finsh_handle_history                     0x0800dffd   Thumb Code   178  shell.o(.text)
    finsh_push_history                       0x0800e0af   Thumb Code   140  shell.o(.text)
    finsh_thread_entry                       0x0800e13b   Thumb Code   560  shell.o(.text)
    finsh_system_function_init               0x0800e36b   Thumb Code    10  shell.o(.text)
    finsh_system_var_init                    0x0800e375   Thumb Code    10  shell.o(.text)
    finsh_system_init                        0x0800e37f   Thumb Code   110  shell.o(.text)
    rt_components_board_init                 0x0800e451   Thumb Code    20  components.o(.text)
    rt_components_init                       0x0800e465   Thumb Code    20  components.o(.text)
    netconn_new_with_proto_and_callback      0x0800e485   Thumb Code   158  api_lib.o(.text)
    netconn_delete                           0x0800e523   Thumb Code    32  api_lib.o(.text)
    netconn_getaddr                          0x0800e543   Thumb Code   102  api_lib.o(.text)
    netconn_bind                             0x0800e5a9   Thumb Code    72  api_lib.o(.text)
    netconn_connect                          0x0800e5f1   Thumb Code    72  api_lib.o(.text)
    netconn_disconnect                       0x0800e639   Thumb Code    66  api_lib.o(.text)
    netconn_listen_with_backlog              0x0800e67b   Thumb Code    66  api_lib.o(.text)
    netconn_accept                           0x0800e6bd   Thumb Code   164  api_lib.o(.text)
    netconn_recv_tcp_pbuf                    0x0800eadd   Thumb Code    42  api_lib.o(.text)
    netconn_recv                             0x0800eb07   Thumb Code   212  api_lib.o(.text)
    netconn_recved                           0x0800ebdb   Thumb Code    40  api_lib.o(.text)
    netconn_send                             0x0800ec03   Thumb Code    72  api_lib.o(.text)
    netconn_sendto                           0x0800ec4b   Thumb Code    18  api_lib.o(.text)
    netconn_write                            0x0800ec5d   Thumb Code   114  api_lib.o(.text)
    netconn_close                            0x0800ed19   Thumb Code     4  api_lib.o(.text)
    netconn_shutdown                         0x0800ed1d   Thumb Code    12  api_lib.o(.text)
    netconn_gethostbyname                    0x0800ed29   Thumb Code   110  api_lib.o(.text)
    netconn_free                             0x0800f6f7   Thumb Code   108  api_msg.o(.text)
    netconn_alloc                            0x0800f763   Thumb Code   148  api_msg.o(.text)
    do_newconn                               0x0800fa91   Thumb Code    32  api_msg.o(.text)
    do_delconn                               0x0800fb63   Thumb Code   228  api_msg.o(.text)
    do_bind                                  0x0800fc47   Thumb Code    82  api_msg.o(.text)
    do_connect                               0x0800fd3d   Thumb Code   164  api_msg.o(.text)
    do_disconnect                            0x0800fde1   Thumb Code    42  api_msg.o(.text)
    do_listen                                0x0800fe0b   Thumb Code   166  api_msg.o(.text)
    do_send                                  0x0800feb1   Thumb Code   400  api_msg.o(.text)
    do_recv                                  0x08010041   Thumb Code    68  api_msg.o(.text)
    do_write                                 0x08010085   Thumb Code   130  api_msg.o(.text)
    do_getaddr                               0x08010107   Thumb Code   138  api_msg.o(.text)
    do_close                                 0x08010191   Thumb Code   144  api_msg.o(.text)
    do_gethostbyname                         0x08010265   Thumb Code    36  api_msg.o(.text)
    netbuf_new                               0x080102dd   Thumb Code    26  netbuf.o(.text)
    netbuf_delete                            0x080102f7   Thumb Code    32  netbuf.o(.text)
    netbuf_alloc                             0x08010317   Thumb Code    78  netbuf.o(.text)
    netbuf_free                              0x08010365   Thumb Code    40  netbuf.o(.text)
    netbuf_ref                               0x0801038d   Thumb Code    78  netbuf.o(.text)
    netbuf_chain                             0x080103db   Thumb Code    60  netbuf.o(.text)
    netbuf_data                              0x08010417   Thumb Code    76  netbuf.o(.text)
    netbuf_next                              0x08010463   Thumb Code    46  netbuf.o(.text)
    netbuf_first                             0x08010491   Thumb Code    28  netbuf.o(.text)
    do_netifapi_netif_add                    0x080105e1   Thumb Code    42  netifapi.o(.text)
    do_netifapi_netif_set_addr               0x0801060b   Thumb Code    26  netifapi.o(.text)
    do_netifapi_netif_common                 0x08010625   Thumb Code    34  netifapi.o(.text)
    netifapi_netif_add                       0x08010647   Thumb Code    36  netifapi.o(.text)
    netifapi_netif_set_addr                  0x0801066b   Thumb Code    32  netifapi.o(.text)
    netifapi_netif_common                    0x0801068b   Thumb Code    32  netifapi.o(.text)
    lwip_socket_init                         0x080106ad   Thumb Code     2  sockets.o(.text)
    lwip_accept                              0x0801085f   Thumb Code   354  sockets.o(.text)
    lwip_bind                                0x080109c1   Thumb Code   124  sockets.o(.text)
    lwip_close                               0x08010a3d   Thumb Code   346  sockets.o(.text)
    lwip_connect                             0x08010b97   Thumb Code   126  sockets.o(.text)
    lwip_listen                              0x08010c15   Thumb Code    90  sockets.o(.text)
    lwip_recvfrom                            0x08010c6f   Thumb Code   508  sockets.o(.text)
    lwip_read                                0x08010e6b   Thumb Code    14  sockets.o(.text)
    lwip_recv                                0x08010e79   Thumb Code    14  sockets.o(.text)
    lwip_sendto                              0x08010e87   Thumb Code   228  sockets.o(.text)
    lwip_send                                0x08010f6b   Thumb Code   306  sockets.o(.text)
    lwip_socket                              0x0801109d   Thumb Code   140  sockets.o(.text)
    lwip_write                               0x08011129   Thumb Code     4  sockets.o(.text)
    lwip_select                              0x0801123f   Thumb Code   822  sockets.o(.text)
    lwip_shutdown                            0x08011575   Thumb Code   150  sockets.o(.text)
    lwip_getpeername                         0x0801167d   Thumb Code     4  sockets.o(.text)
    lwip_getsockname                         0x08011681   Thumb Code     4  sockets.o(.text)
    lwip_getsockopt                          0x080117cd   Thumb Code   366  sockets.o(.text)
    lwip_setsockopt                          0x08011a4f   Thumb Code   230  sockets.o(.text)
    lwip_ioctl                               0x08011b35   Thumb Code    88  sockets.o(.text)
    lwip_fcntl                               0x08011b8d   Thumb Code    70  sockets.o(.text)
    tcpip_input                              0x08011c77   Thumb Code    74  tcpip.o(.text)
    tcpip_callback_with_block                0x08011cc1   Thumb Code    92  tcpip.o(.text)
    tcpip_timeout                            0x08011d1d   Thumb Code    64  tcpip.o(.text)
    tcpip_untimeout                          0x08011d5d   Thumb Code    60  tcpip.o(.text)
    tcpip_apimsg                             0x08011d99   Thumb Code    62  tcpip.o(.text)
    tcpip_netifapi                           0x08011dd7   Thumb Code    76  tcpip.o(.text)
    tcpip_init                               0x08011e23   Thumb Code    62  tcpip.o(.text)
    pbuf_free_callback                       0x08011e65   Thumb Code     8  tcpip.o(.text)
    mem_free_callback                        0x08011e6d   Thumb Code     8  tcpip.o(.text)
    sys_arch_assert                          0x08011f25   Thumb Code    44  sys_arch.o(.text)
    lwip_system_init                         0x08011fdd   Thumb Code    84  sys_arch.o(.text)
    sys_init                                 0x08012031   Thumb Code     2  sys_arch.o(.text)
    lwip_sys_init                            0x08012033   Thumb Code     2  sys_arch.o(.text)
    sys_sem_new                              0x08012035   Thumb Code   102  sys_arch.o(.text)
    sys_sem_free                             0x0801209b   Thumb Code    62  sys_arch.o(.text)
    sys_sem_signal                           0x080120d9   Thumb Code     6  sys_arch.o(.text)
    sys_arch_sem_wait                        0x080120df   Thumb Code   120  sys_arch.o(.text)
    sys_sem_valid                            0x08012157   Thumb Code     4  sys_arch.o(.text)
    sys_sem_set_invalid                      0x0801215b   Thumb Code     6  sys_arch.o(.text)
    sys_mutex_new                            0x08012161   Thumb Code   100  sys_arch.o(.text)
    sys_mutex_lock                           0x080121c5   Thumb Code    68  sys_arch.o(.text)
    sys_mutex_unlock                         0x08012209   Thumb Code     6  sys_arch.o(.text)
    sys_mutex_free                           0x0801220f   Thumb Code    64  sys_arch.o(.text)
    sys_mutex_valid                          0x0801224f   Thumb Code     4  sys_arch.o(.text)
    sys_mutex_set_invalid                    0x08012253   Thumb Code     6  sys_arch.o(.text)
    sys_mbox_new                             0x08012259   Thumb Code   364  sys_arch.o(.text)
    sys_mbox_free                            0x080123c5   Thumb Code    66  sys_arch.o(.text)
    sys_mbox_post                            0x08012407   Thumb Code    80  sys_arch.o(.text)
    sys_mbox_trypost                         0x08012457   Thumb Code    18  sys_arch.o(.text)
    sys_arch_mbox_fetch                      0x08012469   Thumb Code   150  sys_arch.o(.text)
    sys_arch_mbox_tryfetch                   0x080124ff   Thumb Code    28  sys_arch.o(.text)
    sys_mbox_valid                           0x0801251b   Thumb Code     4  sys_arch.o(.text)
    sys_mbox_set_invalid                     0x0801251f   Thumb Code     6  sys_arch.o(.text)
    sys_thread_new                           0x08012525   Thumb Code   130  sys_arch.o(.text)
    sys_arch_protect                         0x080125a7   Thumb Code     4  sys_arch.o(.text)
    sys_arch_unprotect                       0x080125ab   Thumb Code     4  sys_arch.o(.text)
    sys_jiffies                              0x080125af   Thumb Code     4  sys_arch.o(.text)
    lwip_htons                               0x080125e9   Thumb Code     4  def.o(.text)
    lwip_ntohs                               0x080125ed   Thumb Code     4  def.o(.text)
    lwip_htonl                               0x080125f1   Thumb Code     4  def.o(.text)
    lwip_ntohl                               0x080125f5   Thumb Code     4  def.o(.text)
    dhcp_renew                               0x08012d39   Thumb Code   130  dhcp.o(.text)
    dhcp_coarse_tmr                          0x08012e3b   Thumb Code    90  dhcp.o(.text)
    dhcp_release                             0x08012f2f   Thumb Code   158  dhcp.o(.text)
    dhcp_fine_tmr                            0x08012fcd   Thumb Code   124  dhcp.o(.text)
    dhcp_set_struct                          0x080130c7   Thumb Code    80  dhcp.o(.text)
    dhcp_cleanup                             0x08013117   Thumb Code    40  dhcp.o(.text)
    dhcp_stop                                0x0801313f   Thumb Code    90  dhcp.o(.text)
    dhcp_start                               0x080137b9   Thumb Code   220  dhcp.o(.text)
    dhcp_inform                              0x08013895   Thumb Code   168  dhcp.o(.text)
    dhcp_network_changed                     0x0801393d   Thumb Code    66  dhcp.o(.text)
    dns_setserver                            0x08013a4d   Thumb Code    32  dns.o(.text)
    dns_init                                 0x08013bc5   Thumb Code    64  dns.o(.text)
    dns_getserver                            0x08013c05   Thumb Code    20  dns.o(.text)
    dns_tmr                                  0x08013de7   Thumb Code    28  dns.o(.text)
    dns_gethostbyname                        0x08013e03   Thumb Code   374  dns.o(.text)
    lwip_init                                0x0801404d   Thumb Code    32  init.o(.text)
    netif_init                               0x08014071   Thumb Code     2  netif.o(.text)
    netif_set_gw                             0x08014073   Thumb Code     8  netif.o(.text)
    netif_set_netmask                        0x0801407b   Thumb Code     8  netif.o(.text)
    netif_set_ipaddr                         0x08014083   Thumb Code    90  netif.o(.text)
    netif_set_addr                           0x080140dd   Thumb Code    30  netif.o(.text)
    netif_add                                0x080140fb   Thumb Code    98  netif.o(.text)
    netif_set_default                        0x0801415d   Thumb Code     6  netif.o(.text)
    netif_set_down                           0x08014163   Thumb Code    18  netif.o(.text)
    netif_remove                             0x08014175   Thumb Code    68  netif.o(.text)
    netif_find                               0x080141b9   Thumb Code    58  netif.o(.text)
    netif_set_up                             0x080141f3   Thumb Code    32  netif.o(.text)
    netif_set_link_up                        0x08014213   Thumb Code    56  netif.o(.text)
    netif_set_link_down                      0x0801424b   Thumb Code    18  netif.o(.text)
    pbuf_free                                0x0801430d   Thumb Code   130  pbuf.o(.text)
    pbuf_alloc                               0x0801438f   Thumb Code   486  pbuf.o(.text)
    pbuf_realloc                             0x08014575   Thumb Code   182  pbuf.o(.text)
    pbuf_header                              0x0801462b   Thumb Code   762  pbuf.o(.text)
    pbuf_clen                                0x08014925   Thumb Code    18  pbuf.o(.text)
    pbuf_ref                                 0x08014937   Thumb Code    26  pbuf.o(.text)
    pbuf_cat                                 0x08014951   Thumb Code   106  pbuf.o(.text)
    pbuf_chain                               0x080149bb   Thumb Code    16  pbuf.o(.text)
    pbuf_dechain                             0x080149cb   Thumb Code   102  pbuf.o(.text)
    pbuf_copy                                0x08014a31   Thumb Code   258  pbuf.o(.text)
    pbuf_copy_partial                        0x08014b33   Thumb Code   130  pbuf.o(.text)
    pbuf_take                                0x08014bb5   Thumb Code   146  pbuf.o(.text)
    pbuf_coalesce                            0x08014c47   Thumb Code    62  pbuf.o(.text)
    pbuf_get_at                              0x08014c85   Thumb Code    24  pbuf.o(.text)
    pbuf_memcmp                              0x08014c9d   Thumb Code    68  pbuf.o(.text)
    pbuf_memfind                             0x08014ce1   Thumb Code   588  pbuf.o(.text)
    pbuf_strstr                              0x08014f2d   Thumb Code    50  pbuf.o(.text)
    raw_input                                0x08014f61   Thumb Code   100  raw.o(.text)
    raw_bind                                 0x08014fc5   Thumb Code    10  raw.o(.text)
    raw_connect                              0x08014fcf   Thumb Code    10  raw.o(.text)
    raw_recv                                 0x08014fd9   Thumb Code     6  raw.o(.text)
    raw_sendto                               0x08014fdf   Thumb Code   160  raw.o(.text)
    raw_send                                 0x0801507f   Thumb Code     4  raw.o(.text)
    raw_remove                               0x08015083   Thumb Code    36  raw.o(.text)
    raw_new                                  0x080150a7   Thumb Code    40  raw.o(.text)
    tcp_seg_free                             0x08015135   Thumb Code    26  tcp.o(.text)
    tcp_segs_free                            0x0801514f   Thumb Code    18  tcp.o(.text)
    tcp_pcb_purge                            0x08015161   Thumb Code    70  tcp.o(.text)
    tcp_slowtmr                              0x080151a7   Thumb Code   736  tcp.o(.text)
    tcp_pcb_remove                           0x08015487   Thumb Code   154  tcp.o(.text)
    tcp_close                                0x0801581b   Thumb Code    22  tcp.o(.text)
    tcp_update_rcv_ann_wnd                   0x08015831   Thumb Code    80  tcp.o(.text)
    tcp_recved                               0x08015881   Thumb Code    90  tcp.o(.text)
    tcp_recv_null                            0x080158db   Thumb Code    34  tcp.o(.text)
    tcp_fasttmr                              0x080158fd   Thumb Code   100  tcp.o(.text)
    tcp_tmr                                  0x08015961   Thumb Code    28  tcp.o(.text)
    tcp_shutdown                             0x0801597d   Thumb Code    78  tcp.o(.text)
    tcp_abandon                              0x080159cb   Thumb Code   160  tcp.o(.text)
    tcp_abort                                0x08015a6b   Thumb Code     4  tcp.o(.text)
    tcp_bind                                 0x08015aad   Thumb Code   324  tcp.o(.text)
    tcp_listen_with_backlog                  0x08015bf7   Thumb Code   142  tcp.o(.text)
    tcp_eff_send_mss                         0x08015c85   Thumb Code    32  tcp.o(.text)
    tcp_next_iss                             0x08015ca5   Thumb Code    12  tcp.o(.text)
    tcp_connect                              0x08015cb1   Thumb Code   226  tcp.o(.text)
    tcp_setprio                              0x08015d93   Thumb Code     4  tcp.o(.text)
    tcp_seg_copy                             0x08015d97   Thumb Code    38  tcp.o(.text)
    tcp_alloc                                0x08015dbd   Thumb Code   252  tcp.o(.text)
    tcp_new                                  0x08015eb9   Thumb Code     4  tcp.o(.text)
    tcp_arg                                  0x08015ebd   Thumb Code     4  tcp.o(.text)
    tcp_recv                                 0x08015ec1   Thumb Code     6  tcp.o(.text)
    tcp_sent                                 0x08015ec7   Thumb Code     6  tcp.o(.text)
    tcp_err                                  0x08015ecd   Thumb Code     6  tcp.o(.text)
    tcp_accept                               0x08015ed3   Thumb Code     4  tcp.o(.text)
    tcp_poll                                 0x08015ed7   Thumb Code    10  tcp.o(.text)
    tcp_debug_state_str                      0x08015ee1   Thumb Code     8  tcp.o(.text)
    tcp_input                                0x08016eb7   Thumb Code   988  tcp_in.o(.text)
    tcp_enqueue_flags                        0x08017557   Thumb Code   302  tcp_out.o(.text)
    tcp_send_fin                             0x08017685   Thumb Code    58  tcp_out.o(.text)
    tcp_write                                0x0801779f   Thumb Code  1462  tcp_out.o(.text)
    tcp_send_empty_ack                       0x08017d55   Thumb Code    76  tcp_out.o(.text)
    tcp_output                               0x08017fb7   Thumb Code   454  tcp_out.o(.text)
    tcp_rst                                  0x0801817d   Thumb Code   142  tcp_out.o(.text)
    tcp_rexmit_rto                           0x0801820b   Thumb Code    44  tcp_out.o(.text)
    tcp_rexmit                               0x08018237   Thumb Code    78  tcp_out.o(.text)
    tcp_rexmit_fast                          0x08018285   Thumb Code    86  tcp_out.o(.text)
    tcp_keepalive                            0x080182db   Thumb Code    60  tcp_out.o(.text)
    tcp_zero_window_probe                    0x08018317   Thumb Code   190  tcp_out.o(.text)
    sys_timeout                              0x080183d5   Thumb Code   106  timers.o(.text)
    tcp_timer_needed                         0x08018465   Thumb Code    34  timers.o(.text)
    sys_timeouts_init                        0x080184d7   Thumb Code    52  timers.o(.text)
    sys_untimeout                            0x0801850b   Thumb Code    66  timers.o(.text)
    sys_timeouts_mbox_fetch                  0x0801854d   Thumb Code    96  timers.o(.text)
    udp_input                                0x0801863d   Thumb Code   380  udp.o(.text)
    udp_bind                                 0x080187b9   Thumb Code   158  udp.o(.text)
    udp_sendto_if                            0x08018857   Thumb Code   206  udp.o(.text)
    udp_sendto                               0x08018925   Thumb Code    40  udp.o(.text)
    udp_send                                 0x0801894d   Thumb Code     6  udp.o(.text)
    udp_connect                              0x08018953   Thumb Code    72  udp.o(.text)
    udp_disconnect                           0x0801899b   Thumb Code    16  udp.o(.text)
    udp_recv                                 0x080189ab   Thumb Code     6  udp.o(.text)
    udp_remove                               0x080189b1   Thumb Code    36  udp.o(.text)
    udp_new                                  0x080189d5   Thumb Code    28  udp.o(.text)
    icmp_input                               0x08018a91   Thumb Code   348  icmp.o(.text)
    icmp_dest_unreach                        0x08018bed   Thumb Code     8  icmp.o(.text)
    inet_chksum_pseudo                       0x08018e17   Thumb Code   134  inet_chksum.o(.text)
    inet_chksum_pseudo_partial               0x08018e9d   Thumb Code   178  inet_chksum.o(.text)
    inet_chksum                              0x08018f4f   Thumb Code    12  inet_chksum.o(.text)
    inet_chksum_pbuf                         0x08018f5b   Thumb Code    72  inet_chksum.o(.text)
    ip_route                                 0x08018fe9   Thumb Code    54  ip.o(.text)
    ip_input                                 0x0801901f   Thumb Code   356  ip.o(.text)
    ip_output_if                             0x08019183   Thumb Code   186  ip.o(.text)
    ip_output                                0x0801923d   Thumb Code    74  ip.o(.text)
    ip4_addr_isbroadcast                     0x08019301   Thumb Code    46  ip_addr.o(.text)
    ip4_addr_netmask_valid                   0x0801932f   Thumb Code    38  ip_addr.o(.text)
    ipaddr_aton                              0x08019355   Thumb Code   264  ip_addr.o(.text)
    ipaddr_addr                              0x0801945d   Thumb Code    20  ip_addr.o(.text)
    ipaddr_ntoa_r                            0x08019471   Thumb Code   120  ip_addr.o(.text)
    ipaddr_ntoa                              0x080194e9   Thumb Code     6  ip_addr.o(.text)
    etharp_tmr                               0x080195af   Thumb Code    50  etharp.o(.text)
    etharp_find_addr                         0x08019809   Thumb Code    70  etharp.o(.text)
    etharp_request                           0x08019b79   Thumb Code    34  etharp.o(.text)
    etharp_query                             0x08019b9b   Thumb Code   306  etharp.o(.text)
    etharp_output                            0x08019ccd   Thumb Code   196  etharp.o(.text)
    ethernet_input                           0x08019d91   Thumb Code   110  etharp.o(.text)
    eth_device_init_with_flag                0x08019f19   Thumb Code   170  ethernetif.o(.text)
    eth_device_init                          0x08019fc3   Thumb Code     4  ethernetif.o(.text)
    eth_device_ready                         0x08019fc7   Thumb Code    16  ethernetif.o(.text)
    eth_device_linkchange                    0x08019fd7   Thumb Code    64  ethernetif.o(.text)
    eth_system_device_init                   0x0801a0fb   Thumb Code   266  ethernetif.o(.text)
    set_if                                   0x0801a205   Thumb Code   532  ethernetif.o(.text)
    set_dns                                  0x0801a419   Thumb Code    26  ethernetif.o(.text)
    list_if                                  0x0801a433   Thumb Code   286  ethernetif.o(.text)
    list_tcps                                0x0801a551   Thumb Code   240  ethernetif.o(.text)
    atoi                                     0x0801a7c1   Thumb Code    26  atoi.o(.text)
    strtol                                   0x0801a7db   Thumb Code   112  strtol.o(.text)
    strcpy                                   0x0801a84b   Thumb Code    72  strcpy.o(.text)
    strlen                                   0x0801a893   Thumb Code    62  strlen.o(.text)
    strncmp                                  0x0801a8d1   Thumb Code   150  strncmp.o(.text)
    strcat                                   0x0801a967   Thumb Code    24  strcat.o(.text)
    __aeabi_memcpy                           0x0801a97f   Thumb Code     0  rt_memcpy_v6.o(.text)
    __rt_memcpy                              0x0801a97f   Thumb Code   138  rt_memcpy_v6.o(.text)
    _memcpy_lastbytes                        0x0801a9e5   Thumb Code     0  rt_memcpy_v6.o(.text)
    __aeabi_memcpy4                          0x0801aa09   Thumb Code     0  rt_memcpy_w.o(.text)
    __aeabi_memcpy8                          0x0801aa09   Thumb Code     0  rt_memcpy_w.o(.text)
    __rt_memcpy_w                            0x0801aa09   Thumb Code   100  rt_memcpy_w.o(.text)
    _memcpy_lastbytes_aligned                0x0801aa51   Thumb Code     0  rt_memcpy_w.o(.text)
    __aeabi_memclr                           0x0801aa6d   Thumb Code     0  rt_memclr.o(.text)
    __rt_memclr                              0x0801aa6d   Thumb Code    68  rt_memclr.o(.text)
    _memset                                  0x0801aa71   Thumb Code     0  rt_memclr.o(.text)
    __aeabi_memclr4                          0x0801aab1   Thumb Code     0  rt_memclr_w.o(.text)
    __aeabi_memclr8                          0x0801aab1   Thumb Code     0  rt_memclr_w.o(.text)
    __rt_memclr_w                            0x0801aab1   Thumb Code    78  rt_memclr_w.o(.text)
    _memset_w                                0x0801aab5   Thumb Code     0  rt_memclr_w.o(.text)
    strncpy                                  0x0801aaff   Thumb Code    86  strncpy.o(.text)
    __use_two_region_memory                  0x0801ab55   Thumb Code     2  heapauxi.o(.text)
    __rt_heap_escrow                         0x0801ab57   Thumb Code     2  heapauxi.o(.text)
    __rt_heap_expand                         0x0801ab59   Thumb Code     2  heapauxi.o(.text)
    __I$use$semihosting                      0x0801ab5b   Thumb Code     0  use_no_semi.o(.text)
    __use_no_semihosting_swi                 0x0801ab5b   Thumb Code     2  use_no_semi.o(.text)
    __rt_ctype_table                         0x0801ab5d   Thumb Code    16  rt_ctype_table.o(.text)
    __semihosting_library_function           0x0801ab5d   Thumb Code     0  indicate_semi.o(.text)
    __rt_locale                              0x0801ab6d   Thumb Code     8  rt_locale_intlibspace.o(.text)
    __aeabi_errno_addr                       0x0801ab75   Thumb Code     8  rt_errno_addr_intlibspace.o(.text)
    __errno$intlibspace                      0x0801ab75   Thumb Code     0  rt_errno_addr_intlibspace.o(.text)
    __rt_errno_addr$intlibspace              0x0801ab75   Thumb Code     0  rt_errno_addr_intlibspace.o(.text)
    _chval                                   0x0801ab7d   Thumb Code    28  _chval.o(.text)
    _strtoul                                 0x0801ab99   Thumb Code   158  _strtoul.o(.text)
    __user_libspace                          0x0801ac39   Thumb Code     8  libspace.o(.text)
    __user_perproc_libspace                  0x0801ac39   Thumb Code     0  libspace.o(.text)
    __user_perthread_libspace                0x0801ac39   Thumb Code     0  libspace.o(.text)
    __user_setup_stackheap                   0x0801ac41   Thumb Code    74  sys_stackheap_outer.o(.text)
    exit                                     0x0801ac8b   Thumb Code    12  exit.o(.text)
    _sys_exit                                0x0801ac99   Thumb Code     8  sys_exit.o(.text)
    __rt_fp_status_addr                      0x0801aca5   Thumb Code     8  rt_fp_status_addr_intlibspace.o(.text)
    _get_lc_ctype                            0x0801acad   Thumb Code    44  lc_ctype_c.o(locale$$code)
    _fp_init                                 0x0801acd9   Thumb Code    14  fpinit.o(x$fpl$fpinit)
    __fplib_config_pureend_doubles           0x0801ace5   Thumb Code     0  fpinit.o(x$fpl$fpinit)
    __lowest_bit_bitmap                      0x0801afef   Data         256  kservice.o(.constdata)
    __fsym_list_mem_name                     0x0801b111   Data           9  mem.o(.constdata)
    __fsym_list_mem_desc                     0x0801b11a   Data          30  mem.o(.constdata)
    __fsym_mkfs_name                         0x0801b496   Data           5  dfs_fs.o(.constdata)
    __fsym_mkfs_desc                         0x0801b49b   Data          19  dfs_fs.o(.constdata)
    __fsym_df_name                           0x0801b4ae   Data           3  dfs_fs.o(.constdata)
    __fsym_df_desc                           0x0801b4b1   Data          14  dfs_fs.o(.constdata)
    __fsym_ls_name                           0x0801b4dc   Data           3  dfs_file.o(.constdata)
    __fsym_ls_desc                           0x0801b4df   Data          24  dfs_file.o(.constdata)
    __fsym_rm_name                           0x0801b4f7   Data           3  dfs_file.o(.constdata)
    __fsym_rm_desc                           0x0801b4fa   Data          28  dfs_file.o(.constdata)
    __fsym_cat_name                          0x0801b516   Data           4  dfs_file.o(.constdata)
    __fsym_cat_desc                          0x0801b51a   Data          11  dfs_file.o(.constdata)
    __fsym_copy_name                         0x0801b525   Data           5  dfs_file.o(.constdata)
    __fsym_copy_desc                         0x0801b52a   Data          37  dfs_file.o(.constdata)
    __fsym_mkdir_name                        0x0801b54f   Data           6  dfs_posix.o(.constdata)
    __fsym_mkdir_desc                        0x0801b555   Data          19  dfs_posix.o(.constdata)
    __fsym_chdir_name                        0x0801b568   Data           3  dfs_posix.o(.constdata)
    __fsym_chdir_desc                        0x0801b56b   Data          33  dfs_posix.o(.constdata)
    __fsym_hello_name                        0x0801b708   Data           6  cmd.o(.constdata)
    __fsym_hello_desc                        0x0801b70e   Data          16  cmd.o(.constdata)
    __fsym_version_name                      0x0801b71e   Data           8  cmd.o(.constdata)
    __fsym_version_desc                      0x0801b726   Data          35  cmd.o(.constdata)
    __fsym_list_thread_name                  0x0801b749   Data          12  cmd.o(.constdata)
    __fsym_list_thread_desc                  0x0801b755   Data          12  cmd.o(.constdata)
    __fsym_list_sem_name                     0x0801b761   Data           9  cmd.o(.constdata)
    __fsym_list_sem_desc                     0x0801b76a   Data          25  cmd.o(.constdata)
    __fsym_list_event_name                   0x0801b783   Data          11  cmd.o(.constdata)
    __fsym_list_event_desc                   0x0801b78e   Data          21  cmd.o(.constdata)
    __fsym_list_mutex_name                   0x0801b7a3   Data          11  cmd.o(.constdata)
    __fsym_list_mutex_desc                   0x0801b7ae   Data          21  cmd.o(.constdata)
    __fsym_list_mailbox_name                 0x0801b7c3   Data          13  cmd.o(.constdata)
    __fsym_list_mailbox_desc                 0x0801b7d0   Data          24  cmd.o(.constdata)
    __fsym_list_msgqueue_name                0x0801b7e8   Data          14  cmd.o(.constdata)
    __fsym_list_msgqueue_desc                0x0801b7f6   Data          29  cmd.o(.constdata)
    __fsym_list_mempool_name                 0x0801b813   Data          13  cmd.o(.constdata)
    __fsym_list_mempool_desc                 0x0801b820   Data          27  cmd.o(.constdata)
    __fsym_list_timer_name                   0x0801b83b   Data          11  cmd.o(.constdata)
    __fsym_list_timer_desc                   0x0801b846   Data          21  cmd.o(.constdata)
    __fsym_list_device_name                  0x0801b85b   Data          12  cmd.o(.constdata)
    __fsym_list_device_desc                  0x0801b867   Data          22  cmd.o(.constdata)
    __fsym_list_name                         0x0801b87d   Data           5  cmd.o(.constdata)
    __fsym_list_desc                         0x0801b882   Data          26  cmd.o(.constdata)
    __vsym_dummy_name                        0x0801b89c   Data           6  cmd.o(.constdata)
    __vsym_dummy_desc                        0x0801b8a2   Data          25  cmd.o(.constdata)
    op_table                                 0x0801b994   Data         196  finsh_ops.o(.constdata)
    memp_sizes                               0x0801bcc4   Data          28  memp.o(.constdata)
    tcp_persist_backoff                      0x0801bce0   Data           7  tcp.o(.constdata)
    tcp_state_str                            0x0801bce8   Data          44  tcp.o(.constdata)
    tcp_backoff                              0x0801bd14   Data          13  tcp.o(.constdata)
    tcp_pcb_lists                            0x0801bd24   Data          16  tcp.o(.constdata)
    ip_addr_any                              0x0801bd8c   Data           4  ip_addr.o(.constdata)
    ip_addr_broadcast                        0x0801bd90   Data           4  ip_addr.o(.constdata)
    ethbroadcast                             0x0801bd94   Data           6  etharp.o(.constdata)
    ethzero                                  0x0801bd9a   Data           6  etharp.o(.constdata)
    __fsym_set_if_name                       0x0801bde4   Data           7  ethernetif.o(.constdata)
    __fsym_set_if_desc                       0x0801bdeb   Data          30  ethernetif.o(.constdata)
    __fsym_set_dns_name                      0x0801be09   Data           8  ethernetif.o(.constdata)
    __fsym_set_dns_desc                      0x0801be11   Data          23  ethernetif.o(.constdata)
    __fsym_list_if_name                      0x0801be28   Data           8  ethernetif.o(.constdata)
    __fsym_list_if_desc                      0x0801be30   Data          35  ethernetif.o(.constdata)
    __fsym_list_tcps_name                    0x0801be53   Data          10  ethernetif.o(.constdata)
    __fsym_list_tcps_desc                    0x0801be5d   Data          28  ethernetif.o(.constdata)
    __rt_init_rti_start                      0x0801c0fc   Data           4  components.o(.rti_fn.0)
    __rt_init_rti_board_end                  0x0801c100   Data           4  components.o(.rti_fn.1.post)
    __rt_init_rti_end                        0x0801c104   Data           4  components.o(.rti_fn.7)
    FSymTab$$Base                            0x0801c108   Number         0  mem.o(FSymTab)
    __fsym_list_mem                          0x0801c108   Data          12  mem.o(FSymTab)
    __fsym_mkfs                              0x0801c114   Data          12  dfs_fs.o(FSymTab)
    __fsym_df                                0x0801c120   Data          12  dfs_fs.o(FSymTab)
    __fsym_ls                                0x0801c12c   Data          12  dfs_file.o(FSymTab)
    __fsym_rm                                0x0801c138   Data          12  dfs_file.o(FSymTab)
    __fsym_cat                               0x0801c144   Data          12  dfs_file.o(FSymTab)
    __fsym_copy                              0x0801c150   Data          12  dfs_file.o(FSymTab)
    __fsym_mkdir                             0x0801c15c   Data          12  dfs_posix.o(FSymTab)
    __fsym_chdir                             0x0801c168   Data          12  dfs_posix.o(FSymTab)
    __fsym_hello                             0x0801c174   Data          12  cmd.o(FSymTab)
    __fsym_version                           0x0801c180   Data          12  cmd.o(FSymTab)
    __fsym_list_thread                       0x0801c18c   Data          12  cmd.o(FSymTab)
    __fsym_list_sem                          0x0801c198   Data          12  cmd.o(FSymTab)
    __fsym_list_event                        0x0801c1a4   Data          12  cmd.o(FSymTab)
    __fsym_list_mutex                        0x0801c1b0   Data          12  cmd.o(FSymTab)
    __fsym_list_mailbox                      0x0801c1bc   Data          12  cmd.o(FSymTab)
    __fsym_list_msgqueue                     0x0801c1c8   Data          12  cmd.o(FSymTab)
    __fsym_list_mempool                      0x0801c1d4   Data          12  cmd.o(FSymTab)
    __fsym_list_timer                        0x0801c1e0   Data          12  cmd.o(FSymTab)
    __fsym_list_device                       0x0801c1ec   Data          12  cmd.o(FSymTab)
    __fsym_list                              0x0801c1f8   Data          12  cmd.o(FSymTab)
    __fsym_set_if                            0x0801c204   Data          12  ethernetif.o(FSymTab)
    __fsym_set_dns                           0x0801c210   Data          12  ethernetif.o(FSymTab)
    __fsym_list_if                           0x0801c21c   Data          12  ethernetif.o(FSymTab)
    __fsym_list_tcps                         0x0801c228   Data          12  ethernetif.o(FSymTab)
    FSymTab$$Limit                           0x0801c234   Number         0  ethernetif.o(FSymTab)
    Region$$Table$$Base                      0x0801c234   Number         0  anon$$obj.o(Region$$Table)
    Region$$Table$$Limit                     0x0801c254   Number         0  anon$$obj.o(Region$$Table)
    VSymTab$$Base                            0x0801c254   Number         0  cmd.o(VSymTab)
    __vsym_dummy                             0x0801c254   Data          16  cmd.o(VSymTab)
    VSymTab$$Limit                           0x0801c264   Number         0  cmd.o(VSymTab)
    __ctype                                  0x0801c271   Data           0  lc_ctype_c.o(locale$$data)
    DMATxDescToSet                           0x20000010   Data           4  stm32_eth.o(.data)
    DMARxDescToGet                           0x20000014   Data           4  stm32_eth.o(.data)
    DMAPTPTxDescToSet                        0x20000018   Data           4  stm32_eth.o(.data)
    DMAPTPRxDescToGet                        0x2000001c   Data           4  stm32_eth.o(.data)
    uart1                                    0x20000020   Data          12  usart.o(.data)
    uart2                                    0x2000002c   Data          12  usart.o(.data)
    SystemCoreClock                          0x20000038   Data           4  system_stm32f10x.o(.data)
    AHBPrescTable                            0x2000003c   Data          16  system_stm32f10x.o(.data)
    rt_interrupt_nest                        0x20000068   Data           1  irq.o(.data)
    rt_object_trytake_hook                   0x200000a4   Data           4  object.o(.data)
    rt_object_take_hook                      0x200000a8   Data           4  object.o(.data)
    rt_object_put_hook                       0x200000ac   Data           4  object.o(.data)
    rt_object_container                      0x200000b0   Data         144  object.o(.data)
    rt_current_priority                      0x20000140   Data           1  scheduler.o(.data)
    rt_current_thread                        0x20000144   Data           4  scheduler.o(.data)
    rt_thread_ready_priority_group           0x20000148   Data           4  scheduler.o(.data)
    rt_thread_defunct                        0x20000150   Data           8  scheduler.o(.data)
    rt_interrupt_from_thread                 0x20000168   Data           4  cpuport.o(.data)
    rt_interrupt_to_thread                   0x2000016c   Data           4  cpuport.o(.data)
    rt_thread_switch_interrupt_flag          0x20000170   Data           4  cpuport.o(.data)
    working_directory                        0x20000174   Data         256  dfs.o(.data)
    finsh_compile_sp                         0x20000278   Data           4  finsh_compiler.o(.data)
    finsh_compile_pc                         0x2000027c   Data           4  finsh_compiler.o(.data)
    global_errno                             0x20000280   Data           1  finsh_error.o(.data)
    global_sysvar_list                       0x200002c8   Data           4  finsh_var.o(.data)
    global_syscall_list                      0x200002cc   Data           4  finsh_vm.o(.data)
    finsh_sp                                 0x200002d0   Data           4  finsh_vm.o(.data)
    finsh_pc                                 0x200002d4   Data           4  finsh_vm.o(.data)
    shell                                    0x200002d8   Data           4  shell.o(.data)
    _syscall_table_begin                     0x20000360   Data           4  symbol.o(.data)
    _syscall_table_end                       0x20000364   Data           4  symbol.o(.data)
    _sysvar_table_begin                      0x20000368   Data           4  symbol.o(.data)
    _sysvar_table_end                        0x2000036c   Data           4  symbol.o(.data)
    netif_list                               0x200003a8   Data           4  netif.o(.data)
    netif_default                            0x200003ac   Data           4  netif.o(.data)
    tcp_ticks                                0x200003c0   Data           4  tcp.o(.data)
    tcp_bound_pcbs                           0x200003c4   Data           4  tcp.o(.data)
    tcp_listen_pcbs                          0x200003c8   Data           4  tcp.o(.data)
    tcp_active_pcbs                          0x200003cc   Data           4  tcp.o(.data)
    tcp_tw_pcbs                              0x200003d0   Data           4  tcp.o(.data)
    tcp_tmp_pcb                              0x200003d4   Data           4  tcp.o(.data)
    tcp_input_pcb                            0x200003f0   Data           4  tcp_in.o(.data)
    udp_pcbs                                 0x200003fc   Data           4  udp.o(.data)
    current_netif                            0x20000404   Data           4  ip.o(.data)
    current_header                           0x20000408   Data           4  ip.o(.data)
    current_iphdr_src                        0x2000040c   Data           4  ip.o(.data)
    current_iphdr_dest                       0x20000410   Data           4  ip.o(.data)
    uart1_int_rx                             0x20002a28   Data         136  usart.o(.bss)
    uart1_device                             0x20002ab0   Data          64  usart.o(.bss)
    uart2_device                             0x20002af0   Data          64  usart.o(.bss)
    uart2_int_rx                             0x20002b30   Data         136  usart.o(.bss)
    rt_thread_priority_table                 0x20002dd8   Data         256  scheduler.o(.bss)
    filesystem_operation_table               0x20002ed8   Data          16  dfs.o(.bss)
    filesystem_table                         0x20002ee8   Data          32  dfs.o(.bss)
    fd_table                                 0x20002f2c   Data         128  dfs.o(.bss)
    finsh_heap                               0x200030d0   Data         128  finsh_heap.o(.bss)
    global_node_table                        0x20003150   Data         320  finsh_node.o(.bss)
    global_variable                          0x20003290   Data         192  finsh_var.o(.bss)
    finsh_vm_stack                           0x20003350   Data         256  finsh_vm.o(.bss)
    text_segment                             0x20003450   Data         128  finsh_vm.o(.bss)
    dhcp_rx_options_val                      0x20003db0   Data          40  dhcp.o(.bss)
    dhcp_rx_options_given                    0x20003dd8   Data          10  dhcp.o(.bss)
    __libspace_start                         0x20004a8c   Data          96  libspace.o(.bss)
    __temporary_stack_top$libspace           0x20004aec   Data           0  libspace.o(.bss)
    Image$$RW_IRAM1$$ZI$$Limit               0x200050f0   Number         0  startup_stm32f10x_cl.o(STACK)



==============================================================================

Memory Map of the image

  Image Entry point : 0x08000151

  Load Region LR_IROM1 (Base: 0x08000000, Size: 0x0001c78c, Max: 0x00040000, ABSOLUTE, COMPRESSED[0x0001c448])

    Execution Region ER_IROM1 (Base: 0x08000000, Size: 0x0001c374, Max: 0x00040000, ABSOLUTE)

    Base Addr    Size         Type   Attr      Idx    E Section Name        Object

    0x08000000   0x00000150   Data   RO          981    RESET               startup_stm32f10x_cl.o
    0x08000150   0x00000008   Code   RO         3546  * !!!main             c_w.l(__main.o)
    0x08000158   0x00000034   Code   RO         4036    !!!scatter          c_w.l(__scatter.o)
    0x0800018c   0x0000005a   Code   RO         4034    !!dczerorl2         c_w.l(__dczerorl2.o)
    0x080001e6   0x00000002   PAD
    0x080001e8   0x0000001c   Code   RO         4038    !!handler_zi        c_w.l(__scatter_zi.o)
    0x08000204   0x00000006   Code   RO         3972    .ARM.Collect$$libinit$$00000000  c_w.l(libinit.o)
    0x0800020a   0x00000000   Code   RO         3722    .ARM.Collect$$libinit$$00000006  c_w.l(libinit2.o)
    0x0800020a   0x00000000   Code   RO         3724    .ARM.Collect$$libinit$$00000008  c_w.l(libinit2.o)
    0x0800020a   0x00000000   Code   RO         3726    .ARM.Collect$$libinit$$0000000A  c_w.l(libinit2.o)
    0x0800020a   0x00000006   Code   RO         3727    .ARM.Collect$$libinit$$0000000B  c_w.l(libinit2.o)
    0x08000210   0x00000000   Code   RO         3729    .ARM.Collect$$libinit$$0000000D  c_w.l(libinit2.o)
    0x08000210   0x0000000c   Code   RO         3730    .ARM.Collect$$libinit$$0000000E  c_w.l(libinit2.o)
    0x0800021c   0x00000000   Code   RO         3731    .ARM.Collect$$libinit$$0000000F  c_w.l(libinit2.o)
    0x0800021c   0x00000000   Code   RO         3733    .ARM.Collect$$libinit$$00000011  c_w.l(libinit2.o)
    0x0800021c   0x00000000   Code   RO         3735    .ARM.Collect$$libinit$$00000013  c_w.l(libinit2.o)
    0x0800021c   0x00000000   Code   RO         3737    .ARM.Collect$$libinit$$00000015  c_w.l(libinit2.o)
    0x0800021c   0x00000000   Code   RO         3739    .ARM.Collect$$libinit$$00000017  c_w.l(libinit2.o)
    0x0800021c   0x00000000   Code   RO         3741    .ARM.Collect$$libinit$$00000019  c_w.l(libinit2.o)
    0x0800021c   0x00000000   Code   RO         3743    .ARM.Collect$$libinit$$0000001B  c_w.l(libinit2.o)
    0x0800021c   0x00000000   Code   RO         3745    .ARM.Collect$$libinit$$0000001D  c_w.l(libinit2.o)
    0x0800021c   0x00000000   Code   RO         3747    .ARM.Collect$$libinit$$0000001F  c_w.l(libinit2.o)
    0x0800021c   0x00000000   Code   RO         3749    .ARM.Collect$$libinit$$00000021  c_w.l(libinit2.o)
    0x0800021c   0x00000000   Code   RO         3753    .ARM.Collect$$libinit$$00000028  c_w.l(libinit2.o)
    0x0800021c   0x00000000   Code   RO         3755    .ARM.Collect$$libinit$$0000002A  c_w.l(libinit2.o)
    0x0800021c   0x00000000   Code   RO         3757    .ARM.Collect$$libinit$$0000002C  c_w.l(libinit2.o)
    0x0800021c   0x00000000   Code   RO         3759    .ARM.Collect$$libinit$$0000002E  c_w.l(libinit2.o)
    0x0800021c   0x00000002   Code   RO         3760    .ARM.Collect$$libinit$$0000002F  c_w.l(libinit2.o)
    0x0800021e   0x00000002   Code   RO         4031    .ARM.Collect$$libshutdown$$00000000  c_w.l(libshutdown.o)
    0x08000220   0x00000000   Code   RO         3897    .ARM.Collect$$libshutdown$$00000003  c_w.l(libshutdown2.o)
    0x08000220   0x00000000   Code   RO         3900    .ARM.Collect$$libshutdown$$00000006  c_w.l(libshutdown2.o)
    0x08000220   0x00000000   Code   RO         3903    .ARM.Collect$$libshutdown$$00000009  c_w.l(libshutdown2.o)
    0x08000220   0x00000000   Code   RO         3905    .ARM.Collect$$libshutdown$$0000000B  c_w.l(libshutdown2.o)
    0x08000220   0x00000000   Code   RO         3908    .ARM.Collect$$libshutdown$$0000000E  c_w.l(libshutdown2.o)
    0x08000220   0x00000002   Code   RO         3909    .ARM.Collect$$libshutdown$$0000000F  c_w.l(libshutdown2.o)
    0x08000222   0x00000000   Code   RO         3598    .ARM.Collect$$rtentry$$00000000  c_w.l(rtentry.o)
    0x08000222   0x00000000   Code   RO         3797    .ARM.Collect$$rtentry$$00000002  c_w.l(rtentry2.o)
    0x08000222   0x00000006   Code   RO         3809    .ARM.Collect$$rtentry$$00000004  c_w.l(rtentry4.o)
    0x08000228   0x00000000   Code   RO         3799    .ARM.Collect$$rtentry$$00000009  c_w.l(rtentry2.o)
    0x08000228   0x00000004   Code   RO         3800    .ARM.Collect$$rtentry$$0000000A  c_w.l(rtentry2.o)
    0x0800022c   0x00000000   Code   RO         3802    .ARM.Collect$$rtentry$$0000000C  c_w.l(rtentry2.o)
    0x0800022c   0x00000008   Code   RO         3803    .ARM.Collect$$rtentry$$0000000D  c_w.l(rtentry2.o)
    0x08000234   0x00000002   Code   RO         3977    .ARM.Collect$$rtexit$$00000000  c_w.l(rtexit.o)
    0x08000236   0x00000000   Code   RO         4002    .ARM.Collect$$rtexit$$00000002  c_w.l(rtexit2.o)
    0x08000236   0x00000004   Code   RO         4003    .ARM.Collect$$rtexit$$00000003  c_w.l(rtexit2.o)
    0x0800023a   0x00000006   Code   RO         4004    .ARM.Collect$$rtexit$$00000004  c_w.l(rtexit2.o)
    0x08000240   0x000000c4   Code   RO            3    .text               application.o
    0x08000304   0x000000bc   Code   RO          236    .text               startup.o
    0x080003c0   0x0000006c   Code   RO          257    .text               board.o
    0x0800042c   0x00000094   Code   RO          309    .text               platform.o
    0x080004c0   0x0000022c   Code   RO          343    .text               rt_stm32f10x_spi.o
    0x080006ec   0x00000524   Code   RO          365    .text               serial.o
    0x08000c10   0x00001c74   Code   RO          386    .text               stm32_eth.o
    0x08002884   0x00000040   Code   RO          432    .text               stm32f10x_it.o
    0x080028c4   0x000001a0   Code   RO          456    .text               usart.o
    0x08002a64   0x000001a8   Code   RO          482    .text               system_stm32f10x.o
    0x08002c0c   0x00000930   Code   RO          528    .text               stm32f10x_rcc.o
    0x0800353c   0x00000864   Code   RO          774    .text               stm32f10x_spi.o
    0x08003da0   0x00000954   Code   RO          838    .text               stm32f10x_gpio.o
    0x080046f4   0x00000c14   Code   RO          858    .text               stm32f10x_usart.o
    0x08005308   0x0000080c   Code   RO          898    .text               stm32f10x_dma.o
    0x08005b14   0x0000019c   Code   RO          961    .text               misc.o
    0x08005cb0   0x00000040   Code   RO          982    .text               startup_stm32f10x_cl.o
    0x08005cf0   0x00000060   Code   RO          986    .text               clock.o
    0x08005d50   0x00000344   Code   RO         1000    .text               device.o
    0x08006094   0x00000140   Code   RO         1014    .text               idle.o
    0x080061d4   0x00001464   Code   RO         1034    .text               ipc.o
    0x08007638   0x00000038   Code   RO         1051    .text               irq.o
    0x08007670   0x0000077c   Code   RO         1066    .text               kservice.o
    0x08007dec   0x00000754   Code   RO         1084    .text               mem.o
    0x08008540   0x0000039c   Code   RO         1104    .text               mempool.o
    0x080088dc   0x000002cc   Code   RO         1122    .text               object.o
    0x08008ba8   0x00000288   Code   RO         1142    .text               scheduler.o
    0x08008e30   0x000005dc   Code   RO         1163    .text               thread.o
    0x0800940c   0x00000390   Code   RO         1180    .text               timer.o
    0x0800979c   0x00000198   Code   RO         1199    .text               cpuport.o
    0x08009934   0x000000d4   Code   RO         1218    .text               context_rvds.o
    0x08009a08   0x00000350   Code   RO         1256    .text               dfs.o
    0x08009d58   0x000004e8   Code   RO         1291    .text               dfs_fs.o
    0x0800a240   0x000005b0   Code   RO         1313    .text               dfs_file.o
    0x0800a7f0   0x000004ac   Code   RO         1341    .text               dfs_posix.o
    0x0800ac9c   0x000005ac   Code   RO         1413    .text               spi_core.o
    0x0800b248   0x000002c0   Code   RO         1426    .text               spi_dev.o
    0x0800b508   0x00000ac8   Code   RO         1439    .text               cmd.o
    0x0800bfd0   0x0000077c   Code   RO         1499    .text               finsh_compiler.o
    0x0800c74c   0x00000024   Code   RO         1536    .text               finsh_error.o
    0x0800c770   0x000001a8   Code   RO         1552    .text               finsh_heap.o
    0x0800c918   0x0000004c   Code   RO         1569    .text               finsh_init.o
    0x0800c964   0x0000014c   Code   RO         1587    .text               finsh_node.o
    0x0800cab0   0x000004e0   Code   RO         1602    .text               finsh_ops.o
    0x0800cf90   0x00000762   Code   RO         1620    .text               finsh_parser.o
    0x0800d6f2   0x00000002   PAD
    0x0800d6f4   0x000004f8   Code   RO         1635    .text               finsh_token.o
    0x0800dbec   0x00000160   Code   RO         1650    .text               finsh_var.o
    0x0800dd4c   0x000000b0   Code   RO         1673    .text               finsh_vm.o
    0x0800ddfc   0x00000648   Code   RO         1700    .text               shell.o
    0x0800e444   0x00000040   Code   RO         1739    .text               components.o
    0x0800e484   0x00000a04   Code   RO         1965    .text               api_lib.o
    0x0800ee88   0x00001454   Code   RO         2044    .text               api_msg.o
    0x080102dc   0x00000304   Code   RO         2116    .text               netbuf.o
    0x080105e0   0x000000ca   Code   RO         2172    .text               netifapi.o
    0x080106aa   0x00000002   PAD
    0x080106ac   0x0000154c   Code   RO         2220    .text               sockets.o
    0x08011bf8   0x00000308   Code   RO         2272    .text               tcpip.o
    0x08011f00   0x000006e8   Code   RO         2329    .text               sys_arch.o
    0x080125e8   0x00000010   Code   RO         2366    .text               def.o
    0x080125f8   0x00001454   Code   RO         2379    .text               dhcp.o
    0x08013a4c   0x00000600   Code   RO         2414    .text               dns.o
    0x0801404c   0x00000024   Code   RO         2442    .text               init.o
    0x08014070   0x0000023c   Code   RO         2518    .text               netif.o
    0x080142ac   0x00000cb2   Code   RO         2562    .text               pbuf.o
    0x08014f5e   0x00000002   PAD
    0x08014f60   0x000001d4   Code   RO         2607    .text               raw.o
    0x08015134   0x00000e1c   Code   RO         2639    .text               tcp.o
    0x08015f50   0x000014e4   Code   RO         2667    .text               tcp_in.o
    0x08017434   0x00000fa0   Code   RO         2693    .text               tcp_out.o
    0x080183d4   0x00000268   Code   RO         2706    .text               timers.o
    0x0801863c   0x00000454   Code   RO         2750    .text               udp.o
    0x08018a90   0x00000330   Code   RO         2786    .text               icmp.o
    0x08018dc0   0x00000228   Code   RO         2810    .text               inet_chksum.o
    0x08018fe8   0x00000318   Code   RO         2822    .text               ip.o
    0x08019300   0x00000234   Code   RO         2850    .text               ip_addr.o
    0x08019534   0x00000978   Code   RO         2883    .text               etharp.o
    0x08019eac   0x00000914   Code   RO         2912    .text               ethernetif.o
    0x0801a7c0   0x0000001a   Code   RO         3480    .text               c_w.l(atoi.o)
    0x0801a7da   0x00000070   Code   RO         3484    .text               c_w.l(strtol.o)
    0x0801a84a   0x00000048   Code   RO         3516    .text               c_w.l(strcpy.o)
    0x0801a892   0x0000003e   Code   RO         3520    .text               c_w.l(strlen.o)
    0x0801a8d0   0x00000096   Code   RO         3522    .text               c_w.l(strncmp.o)
    0x0801a966   0x00000018   Code   RO         3524    .text               c_w.l(strcat.o)
    0x0801a97e   0x0000008a   Code   RO         3526    .text               c_w.l(rt_memcpy_v6.o)
    0x0801aa08   0x00000064   Code   RO         3528    .text               c_w.l(rt_memcpy_w.o)
    0x0801aa6c   0x00000044   Code   RO         3532    .text               c_w.l(rt_memclr.o)
    0x0801aab0   0x0000004e   Code   RO         3534    .text               c_w.l(rt_memclr_w.o)
    0x0801aafe   0x00000056   Code   RO         3536    .text               c_w.l(strncpy.o)
    0x0801ab54   0x00000006   Code   RO         3544    .text               c_w.l(heapauxi.o)
    0x0801ab5a   0x00000002   Code   RO         3593    .text               c_w.l(use_no_semi.o)
    0x0801ab5c   0x00000000   Code   RO         3597    .text               c_w.l(indicate_semi.o)
    0x0801ab5c   0x00000010   Code   RO         3599    .text               c_w.l(rt_ctype_table.o)
    0x0801ab6c   0x00000008   Code   RO         3609    .text               c_w.l(rt_locale_intlibspace.o)
    0x0801ab74   0x00000008   Code   RO         3614    .text               c_w.l(rt_errno_addr_intlibspace.o)
    0x0801ab7c   0x0000001c   Code   RO         3683    .text               c_w.l(_chval.o)
    0x0801ab98   0x0000009e   Code   RO         3689    .text               c_w.l(_strtoul.o)
    0x0801ac36   0x00000002   PAD
    0x0801ac38   0x00000008   Code   RO         3793    .text               c_w.l(libspace.o)
    0x0801ac40   0x0000004a   Code   RO         3926    .text               c_w.l(sys_stackheap_outer.o)
    0x0801ac8a   0x0000000c   Code   RO         3953    .text               c_w.l(exit.o)
    0x0801ac96   0x00000002   PAD
    0x0801ac98   0x0000000c   Code   RO         3975    .text               c_w.l(sys_exit.o)
    0x0801aca4   0x00000008   Code   RO         4011    .text               c_w.l(rt_fp_status_addr_intlibspace.o)
    0x0801acac   0x0000002c   Code   RO         3873    locale$$code        c_w.l(lc_ctype_c.o)
    0x0801acd8   0x0000000e   Code   RO         3995    x$fpl$fpinit        fz_ws.l(fpinit.o)
    0x0801ace6   0x00000085   Data   RO          366    .constdata          serial.o
    0x0801ad6b   0x000000a8   Data   RO         1001    .constdata          device.o
    0x0801ae13   0x00000016   Data   RO         1016    .constdata          idle.o
    0x0801ae29   0x000001c6   Data   RO         1035    .constdata          ipc.o
    0x0801afef   0x00000122   Data   RO         1068    .constdata          kservice.o
    0x0801b111   0x00000009   Data   RO         1086    .constdata          mem.o
    0x0801b11a   0x0000001e   Data   RO         1087    .constdata          mem.o
    0x0801b138   0x00000138   Data   RO         1088    .constdata          mem.o
    0x0801b270   0x0000003e   Data   RO         1105    .constdata          mempool.o
    0x0801b2ae   0x0000005e   Data   RO         1123    .constdata          object.o
    0x0801b30c   0x0000004e   Data   RO         1144    .constdata          scheduler.o
    0x0801b35a   0x000000aa   Data   RO         1164    .constdata          thread.o
    0x0801b404   0x0000005c   Data   RO         1181    .constdata          timer.o
    0x0801b460   0x00000013   Data   RO         1200    .constdata          cpuport.o
    0x0801b473   0x00000023   Data   RO         1258    .constdata          dfs.o
    0x0801b496   0x00000005   Data   RO         1292    .constdata          dfs_fs.o
    0x0801b49b   0x00000013   Data   RO         1293    .constdata          dfs_fs.o
    0x0801b4ae   0x00000003   Data   RO         1294    .constdata          dfs_fs.o
    0x0801b4b1   0x0000000e   Data   RO         1295    .constdata          dfs_fs.o
    0x0801b4bf   0x0000001d   Data   RO         1296    .constdata          dfs_fs.o
    0x0801b4dc   0x00000003   Data   RO         1315    .constdata          dfs_file.o
    0x0801b4df   0x00000018   Data   RO         1316    .constdata          dfs_file.o
    0x0801b4f7   0x00000003   Data   RO         1317    .constdata          dfs_file.o
    0x0801b4fa   0x0000001c   Data   RO         1318    .constdata          dfs_file.o
    0x0801b516   0x00000004   Data   RO         1319    .constdata          dfs_file.o
    0x0801b51a   0x0000000b   Data   RO         1320    .constdata          dfs_file.o
    0x0801b525   0x00000005   Data   RO         1321    .constdata          dfs_file.o
    0x0801b52a   0x00000025   Data   RO         1322    .constdata          dfs_file.o
    0x0801b54f   0x00000006   Data   RO         1342    .constdata          dfs_posix.o
    0x0801b555   0x00000013   Data   RO         1343    .constdata          dfs_posix.o
    0x0801b568   0x00000003   Data   RO         1344    .constdata          dfs_posix.o
    0x0801b56b   0x00000021   Data   RO         1345    .constdata          dfs_posix.o
    0x0801b58c   0x000000a3   Data   RO         1414    .constdata          spi_core.o
    0x0801b62f   0x000000d9   Data   RO         1427    .constdata          spi_dev.o
    0x0801b708   0x00000006   Data   RO         1440    .constdata          cmd.o
    0x0801b70e   0x00000010   Data   RO         1441    .constdata          cmd.o
    0x0801b71e   0x00000008   Data   RO         1442    .constdata          cmd.o
    0x0801b726   0x00000023   Data   RO         1443    .constdata          cmd.o
    0x0801b749   0x0000000c   Data   RO         1444    .constdata          cmd.o
    0x0801b755   0x0000000c   Data   RO         1445    .constdata          cmd.o
    0x0801b761   0x00000009   Data   RO         1446    .constdata          cmd.o
    0x0801b76a   0x00000019   Data   RO         1447    .constdata          cmd.o
    0x0801b783   0x0000000b   Data   RO         1448    .constdata          cmd.o
    0x0801b78e   0x00000015   Data   RO         1449    .constdata          cmd.o
    0x0801b7a3   0x0000000b   Data   RO         1450    .constdata          cmd.o
    0x0801b7ae   0x00000015   Data   RO         1451    .constdata          cmd.o
    0x0801b7c3   0x0000000d   Data   RO         1452    .constdata          cmd.o
    0x0801b7d0   0x00000018   Data   RO         1453    .constdata          cmd.o
    0x0801b7e8   0x0000000e   Data   RO         1454    .constdata          cmd.o
    0x0801b7f6   0x0000001d   Data   RO         1455    .constdata          cmd.o
    0x0801b813   0x0000000d   Data   RO         1456    .constdata          cmd.o
    0x0801b820   0x0000001b   Data   RO         1457    .constdata          cmd.o
    0x0801b83b   0x0000000b   Data   RO         1458    .constdata          cmd.o
    0x0801b846   0x00000015   Data   RO         1459    .constdata          cmd.o
    0x0801b85b   0x0000000c   Data   RO         1460    .constdata          cmd.o
    0x0801b867   0x00000016   Data   RO         1461    .constdata          cmd.o
    0x0801b87d   0x00000005   Data   RO         1462    .constdata          cmd.o
    0x0801b882   0x0000001a   Data   RO         1463    .constdata          cmd.o
    0x0801b89c   0x00000006   Data   RO         1464    .constdata          cmd.o
    0x0801b8a2   0x00000019   Data   RO         1465    .constdata          cmd.o
    0x0801b8bb   0x00000001   PAD
    0x0801b8bc   0x000000d7   Data   RO         1466    .constdata          cmd.o
    0x0801b993   0x00000001   PAD
    0x0801b994   0x000000c4   Data   RO         1603    .constdata          finsh_ops.o
    0x0801ba58   0x00000040   Data   RO         1636    .constdata          finsh_token.o
    0x0801ba98   0x0000004d   Data   RO         1702    .constdata          shell.o
    0x0801bae5   0x00000003   PAD
    0x0801bae8   0x00000040   Data   RO         2222    .constdata          sockets.o
    0x0801bb28   0x000000b3   Data   RO         2330    .constdata          sys_arch.o
    0x0801bbdb   0x00000001   PAD
    0x0801bbdc   0x00000089   Data   RO         2381    .constdata          dhcp.o
    0x0801bc65   0x00000003   PAD
    0x0801bc68   0x0000005c   Data   RO         2443    .constdata          init.o
    0x0801bcc4   0x0000001c   Data   RO         2485    .constdata          memp.o
    0x0801bce0   0x00000054   Data   RO         2640    .constdata          tcp.o
    0x0801bd34   0x00000055   Data   RO         2694    .constdata          tcp_out.o
    0x0801bd89   0x00000003   PAD
    0x0801bd8c   0x00000004   Data   RO         2852    .constdata          ip_addr.o
    0x0801bd90   0x00000004   Data   RO         2853    .constdata          ip_addr.o
    0x0801bd94   0x00000050   Data   RO         2885    .constdata          etharp.o
    0x0801bde4   0x00000007   Data   RO         2914    .constdata          ethernetif.o
    0x0801bdeb   0x0000001e   Data   RO         2915    .constdata          ethernetif.o
    0x0801be09   0x00000008   Data   RO         2916    .constdata          ethernetif.o
    0x0801be11   0x00000017   Data   RO         2917    .constdata          ethernetif.o
    0x0801be28   0x00000008   Data   RO         2918    .constdata          ethernetif.o
    0x0801be30   0x00000023   Data   RO         2919    .constdata          ethernetif.o
    0x0801be53   0x0000000a   Data   RO         2920    .constdata          ethernetif.o
    0x0801be5d   0x0000001c   Data   RO         2921    .constdata          ethernetif.o
    0x0801be79   0x00000041   Data   RO         2922    .constdata          ethernetif.o
    0x0801beba   0x000000d6   Data   RO         1467    .conststring        cmd.o
    0x0801bf90   0x000000d8   Data   RO         1537    .conststring        finsh_error.o
    0x0801c068   0x0000002c   Data   RO         1637    .conststring        finsh_token.o
    0x0801c094   0x00000068   Data   RO         2641    .conststring        tcp.o
    0x0801c0fc   0x00000004   Data   RO         1740    .rti_fn.0           components.o
    0x0801c100   0x00000004   Data   RO         1741    .rti_fn.1.post      components.o
    0x0801c104   0x00000004   Data   RO         1742    .rti_fn.7           components.o
    0x0801c108   0x0000000c   Data   RO         1090    FSymTab             mem.o
    0x0801c114   0x0000000c   Data   RO         1297    FSymTab             dfs_fs.o
    0x0801c120   0x0000000c   Data   RO         1298    FSymTab             dfs_fs.o
    0x0801c12c   0x0000000c   Data   RO         1323    FSymTab             dfs_file.o
    0x0801c138   0x0000000c   Data   RO         1324    FSymTab             dfs_file.o
    0x0801c144   0x0000000c   Data   RO         1325    FSymTab             dfs_file.o
    0x0801c150   0x0000000c   Data   RO         1326    FSymTab             dfs_file.o
    0x0801c15c   0x0000000c   Data   RO         1346    FSymTab             dfs_posix.o
    0x0801c168   0x0000000c   Data   RO         1347    FSymTab             dfs_posix.o
    0x0801c174   0x0000000c   Data   RO         1469    FSymTab             cmd.o
    0x0801c180   0x0000000c   Data   RO         1470    FSymTab             cmd.o
    0x0801c18c   0x0000000c   Data   RO         1471    FSymTab             cmd.o
    0x0801c198   0x0000000c   Data   RO         1472    FSymTab             cmd.o
    0x0801c1a4   0x0000000c   Data   RO         1473    FSymTab             cmd.o
    0x0801c1b0   0x0000000c   Data   RO         1474    FSymTab             cmd.o
    0x0801c1bc   0x0000000c   Data   RO         1475    FSymTab             cmd.o
    0x0801c1c8   0x0000000c   Data   RO         1476    FSymTab             cmd.o
    0x0801c1d4   0x0000000c   Data   RO         1477    FSymTab             cmd.o
    0x0801c1e0   0x0000000c   Data   RO         1478    FSymTab             cmd.o
    0x0801c1ec   0x0000000c   Data   RO         1479    FSymTab             cmd.o
    0x0801c1f8   0x0000000c   Data   RO         1480    FSymTab             cmd.o
    0x0801c204   0x0000000c   Data   RO         2924    FSymTab             ethernetif.o
    0x0801c210   0x0000000c   Data   RO         2925    FSymTab             ethernetif.o
    0x0801c21c   0x0000000c   Data   RO         2926    FSymTab             ethernetif.o
    0x0801c228   0x0000000c   Data   RO         2927    FSymTab             ethernetif.o
    0x0801c234   0x00000020   Data   RO         4032    Region$$Table       anon$$obj.o
    0x0801c254   0x00000010   Data   RO         1481    VSymTab             cmd.o
    0x0801c264   0x00000110   Data   RO         3872    locale$$data        c_w.l(lc_ctype_c.o)


    Execution Region RW_IRAM1 (Base: 0x20000000, Size: 0x000050f0, Max: 0x00010000, ABSOLUTE, COMPRESSED[0x000000d4])

    Base Addr    Size         Type   Attr      Idx    E Section Name        Object

    0x20000000   0x00000008   Data   RW          311    .data               platform.o
    0x20000008   0x00000008   Data   RW          344    .data               rt_stm32f10x_spi.o
    0x20000010   0x00000010   Data   RW          388    .data               stm32_eth.o
    0x20000020   0x00000018   Data   RW          460    .data               usart.o
    0x20000038   0x00000014   Data   RW          483    .data               system_stm32f10x.o
    0x2000004c   0x00000014   Data   RW          529    .data               stm32f10x_rcc.o
    0x20000060   0x00000004   Data   RW          987    .data               clock.o
    0x20000064   0x00000004   Data   RW         1017    .data               idle.o
    0x20000068   0x00000001   Data   RW         1052    .data               irq.o
    0x20000069   0x00000003   PAD
    0x2000006c   0x00000008   Data   RW         1069    .data               kservice.o
    0x20000074   0x00000020   Data   RW         1089    .data               mem.o
    0x20000094   0x00000008   Data   RW         1106    .data               mempool.o
    0x2000009c   0x000000a4   Data   RW         1124    .data               object.o
    0x20000140   0x00000018   Data   RW         1145    .data               scheduler.o
    0x20000158   0x0000000c   Data   RW         1182    .data               timer.o
    0x20000164   0x00000004   Data   RW         1201    .data               cpuport.o
    0x20000168   0x00000004   Data   RW         1202    .data               cpuport.o
    0x2000016c   0x00000004   Data   RW         1203    .data               cpuport.o
    0x20000170   0x00000004   Data   RW         1204    .data               cpuport.o
    0x20000174   0x00000100   Data   RW         1259    .data               dfs.o
    0x20000274   0x00000004   Data   RW         1468    .data               cmd.o
    0x20000278   0x00000008   Data   RW         1500    .data               finsh_compiler.o
    0x20000280   0x00000040   Data   RW         1538    .data               finsh_error.o
    0x200002c0   0x00000008   Data   RW         1554    .data               finsh_heap.o
    0x200002c8   0x00000004   Data   RW         1652    .data               finsh_var.o
    0x200002cc   0x0000000c   Data   RW         1675    .data               finsh_vm.o
    0x200002d8   0x00000085   Data   RW         1703    .data               shell.o
    0x2000035d   0x00000003   PAD
    0x20000360   0x00000004   Data   RW         1723    .data               symbol.o
    0x20000364   0x00000004   Data   RW         1724    .data               symbol.o
    0x20000368   0x00000004   Data   RW         1725    .data               symbol.o
    0x2000036c   0x00000004   Data   RW         1726    .data               symbol.o
    0x20000370   0x00000008   Data   RW         2223    .data               sockets.o
    0x20000378   0x0000000c   Data   RW         2273    .data               tcpip.o
    0x20000384   0x00000006   Data   RW         2331    .data               sys_arch.o
    0x2000038a   0x00000002   PAD
    0x2000038c   0x00000004   Data   RW         2382    .data               dhcp.o
    0x20000390   0x00000014   Data   RW         2416    .data               dns.o
    0x200003a4   0x0000000c   Data   RW         2519    .data               netif.o
    0x200003b0   0x00000001   Data   RW         2563    .data               pbuf.o
    0x200003b1   0x00000003   PAD
    0x200003b4   0x00000004   Data   RW         2608    .data               raw.o
    0x200003b8   0x00000020   Data   RW         2642    .data               tcp.o
    0x200003d8   0x0000001c   Data   RW         2669    .data               tcp_in.o
    0x200003f4   0x00000008   Data   RW         2707    .data               timers.o
    0x200003fc   0x00000004   Data   RW         2751    .data               udp.o
    0x20000400   0x00000014   Data   RW         2823    .data               ip.o
    0x20000414   0x00000001   Data   RW         2886    .data               etharp.o
    0x20000415   0x00000003   PAD
    0x20000418   0x000000bc   Zero   RW          310    .bss                platform.o
    0x200004d4   0x00002554   Zero   RW          387    .bss                stm32_eth.o
    0x20002a28   0x00000088   Zero   RW          457    .bss                usart.o
    0x20002ab0   0x00000080   Zero   RW          458    .bss                usart.o
    0x20002b30   0x00000088   Zero   RW          459    .bss                usart.o
    0x20002bb8   0x00000180   Zero   RW         1015    .bss                idle.o
    0x20002d38   0x00000080   Zero   RW         1067    .bss                kservice.o
    0x20002db8   0x00000020   Zero   RW         1085    .bss                mem.o
    0x20002dd8   0x00000100   Zero   RW         1143    .bss                scheduler.o
    0x20002ed8   0x000000d4   Zero   RW         1257    .bss                dfs.o
    0x20002fac   0x00000124   Zero   RW         1314    .bss                dfs_file.o
    0x200030d0   0x00000080   Zero   RW         1553    .bss                finsh_heap.o
    0x20003150   0x00000140   Zero   RW         1588    .bss                finsh_node.o
    0x20003290   0x000000c0   Zero   RW         1651    .bss                finsh_var.o
    0x20003350   0x00000180   Zero   RW         1674    .bss                finsh_vm.o
    0x200034d0   0x00000880   Zero   RW         1701    .bss                shell.o
    0x20003d50   0x00000060   Zero   RW         2221    .bss                sockets.o
    0x20003db0   0x00000032   Zero   RW         2380    .bss                dhcp.o
    0x20003de2   0x00000002   PAD
    0x20003de4   0x00000663   Zero   RW         2415    .bss                dns.o
    0x20004447   0x00000001   PAD
    0x20004448   0x00000014   Zero   RW         2668    .bss                tcp_in.o
    0x2000445c   0x00000010   Zero   RW         2851    .bss                ip_addr.o
    0x2000446c   0x000000a0   Zero   RW         2884    .bss                etharp.o
    0x2000450c   0x00000580   Zero   RW         2913    .bss                ethernetif.o
    0x20004a8c   0x00000060   Zero   RW         3794    .bss                c_w.l(libspace.o)
    0x20004aec   0x00000004   PAD
    0x20004af0   0x00000200   Zero   RW          980    HEAP                startup_stm32f10x_cl.o
    0x20004cf0   0x00000400   Zero   RW          979    STACK               startup_stm32f10x_cl.o


==============================================================================

Image component sizes


      Code (inc. data)   RO Data    RW Data    ZI Data      Debug   Object Name

      2564        862          0          0          0      29247   api_lib.o
      5204       1226          0          0          0      30626   api_msg.o
       196         94          0          0          0     302566   application.o
       108         18          0          0          0      23191   board.o
        96          6          0          4          0       1432   clock.o
      2760       1190       1024          4          0      11227   cmd.o
        64         12         12          0          0       1702   components.o
       212         24          0          0          0        740   context_rvds.o
       408        220         19         16          0       2655   cpuport.o
        16          0          0          0          0       1440   def.o
       836        114        168          0          0       5489   device.o
       848        100         35        256        212       8739   dfs.o
      1456        192        163          0        292       7549   dfs_file.o
      1256        288         94          0          0       5834   dfs_fs.o
      1196         12         85          0          0       9758   dfs_posix.o
      5204       1018        137          4         50      20017   dhcp.o
      1536        242          0         20       1635      12329   dns.o
      2424        520         80          1        160      11755   etharp.o
      2324        776        262          0       1408      29436   ethernetif.o
      1916        102          0          8          0       9378   finsh_compiler.o
        36          4        216         64          0       1593   finsh_error.o
       424         14          0          8        128       3389   finsh_heap.o
        76          4          0          0          0       1528   finsh_init.o
       332          6          0          0        320       3448   finsh_node.o
      1248         36        196          0          0       8496   finsh_ops.o
      1890         32          0          0          0      10545   finsh_parser.o
      1272         18        108          0          0       6128   finsh_token.o
       352         16          0          4        192       7293   finsh_var.o
       176         22          0         12        384       6886   finsh_vm.o
       816        338          0          0          0       2435   icmp.o
       320        100         22          4        384       2811   idle.o
       552         70          0          0          0       3369   inet_chksum.o
        36          4         92          0          0      14764   init.o
       792        122          0         20          0      11170   ip.o
       564         76          8          0         16       9359   ip_addr.o
      5220        268        454          0          0      22631   ipc.o
        56          6          0          1          0       1326   irq.o
      1916        166        290          8        128      11973   kservice.o
      1876        508        363         32         32       6103   mem.o
         0          0         28          0          0       1165   memp.o
       924         98         62          8          0       5362   mempool.o
       412         70          0          0          0       2173   misc.o
         0          0          0          0          0       1956   msd.o
       772        308          0          0          0       8113   netbuf.o
         0          0          0          0          0        888   netdb.o
       572         80          0         12          0      19551   netif.o
       202          0          0          0          0      10819   netifapi.o
       716        150         94        164          0       5948   object.o
      3250       1144          0          1          0      10083   pbuf.o
       148         34          0          8        188      35031   platform.o
       468        102          0          4          0       3501   raw.o
       556         26          0          8          0       2937   rt_stm32f10x_spi.o
       648        152         78         24        256       4827   scheduler.o
      1316        274        133          0          0       5353   serial.o
      1608        250         77        133       2176       6138   shell.o
      5452        612         64          8         96      35300   sockets.o
      1452        120        163          0          0       6478   spi_core.o
       704        170        217          0          0       4631   spi_dev.o
       188         88          0          0          0       1291   startup.o
        64         26        336          0       1536        880   startup_stm32f10x_cl.o
      7284        240          0         16       9556      39921   stm32_eth.o
      2060        120          0          0          0       5674   stm32f10x_dma.o
      2388        202          0          0          0       7465   stm32f10x_gpio.o
        64         10          0          0          0       1347   stm32f10x_it.o
      2352        140          0         20          0      13782   stm32f10x_rcc.o
      2148         98          0          0          0       8638   stm32f10x_spi.o
      3092        126          0          0          0      11384   stm32f10x_usart.o
         0          0          0         16          0       4181   symbol.o
      1768        314        179          6          0      12375   sys_arch.o
       424         46          0         20          0       2287   system_stm32f10x.o
      3612        796        188         32          0      21344   tcp.o
      5348        828          0         28         20      16527   tcp_in.o
      4000        840         85          0          0      10863   tcp_out.o
       776        146          0         12          0      20584   tcpip.o
      1500        214        170          0          0       8042   thread.o
       912        106         92         12          0       6759   timer.o
       616        144          0          8          0       4795   timers.o
      1108        160          0          4          0      14270   udp.o
       416         40          0         24        400       2365   usart.o

    ----------------------------------------------------------------------
    107904      17100       5838       1048      19572    1045385   Object Totals
         0          0         32          0          0          0   (incl. Generated)
         6          0         12         14          3          0   (incl. Padding)

    ----------------------------------------------------------------------

      Code (inc. data)   RO Data    RW Data    ZI Data      Debug   Library Member Name

        90          0          0          0          0          0   __dczerorl2.o
         8          0          0          0          0         68   __main.o
        52          8          0          0          0          0   __scatter.o
        28          0          0          0          0          0   __scatter_zi.o
        28          0          0          0          0         68   _chval.o
       158          0          0          0          0         92   _strtoul.o
        26          0          0          0          0         80   atoi.o
        12          0          0          0          0         72   exit.o
         6          0          0          0          0        152   heapauxi.o
         0          0          0          0          0          0   indicate_semi.o
        44         10        272          0          0         76   lc_ctype_c.o
         6          0          0          0          0          0   libinit.o
        20          0          0          0          0          0   libinit2.o
         2          0          0          0          0          0   libshutdown.o
         2          0          0          0          0          0   libshutdown2.o
         8          4          0          0         96         68   libspace.o
        16          4          0          0          0         76   rt_ctype_table.o
         8          4          0          0          0         68   rt_errno_addr_intlibspace.o
         8          4          0          0          0         68   rt_fp_status_addr_intlibspace.o
         8          4          0          0          0         68   rt_locale_intlibspace.o
        68          0          0          0          0         68   rt_memclr.o
        78          0          0          0          0         80   rt_memclr_w.o
       138          0          0          0          0         68   rt_memcpy_v6.o
       100          0          0          0          0         80   rt_memcpy_w.o
         0          0          0          0          0          0   rtentry.o
        12          0          0          0          0          0   rtentry2.o
         6          0          0          0          0          0   rtentry4.o
         2          0          0          0          0          0   rtexit.o
        10          0          0          0          0          0   rtexit2.o
        24          0          0          0          0         68   strcat.o
        72          0          0          0          0         80   strcpy.o
        62          0          0          0          0         76   strlen.o
       150          0          0          0          0         80   strncmp.o
        86          0          0          0          0         76   strncpy.o
       112          0          0          0          0         88   strtol.o
        12          4          0          0          0         68   sys_exit.o
        74          0          0          0          0         80   sys_stackheap_outer.o
         2          0          0          0          0         68   use_no_semi.o
        14          0          0          0          0         76   fpinit.o

    ----------------------------------------------------------------------
      1558         42        272          0        100       2012   Library Totals
         6          0          0          0          4          0   (incl. Padding)

    ----------------------------------------------------------------------

      Code (inc. data)   RO Data    RW Data    ZI Data      Debug   Library Name

      1538         42        272          0         96       1936   c_w.l
        14          0          0          0          0         76   fz_ws.l

    ----------------------------------------------------------------------
      1558         42        272          0        100       2012   Library Totals

    ----------------------------------------------------------------------

==============================================================================


      Code (inc. data)   RO Data    RW Data    ZI Data      Debug   

    109462      17142       6110       1048      19672    1038973   Grand Totals
    109462      17142       6110        212      19672    1038973   ELF Image Totals (compressed)
    109462      17142       6110        212          0          0   ROM Totals

==============================================================================

    Total RO  Size (Code + RO Data)               115572 ( 112.86kB)
    Total RW  Size (RW Data + ZI Data)             20720 (  20.23kB)
    Total ROM Size (Code + RO Data + RW Data)     115784 ( 113.07kB)

==============================================================================

